{
   This_Is_To_Suppress_False_Warnings_About_Block_Allocation
   Memcheck:Leak
   fun:malloc
   fun:_Znwm
   fun:_Znam
   fun:_ZN7Stroika10Foundation6Memory7Private12GetMem_Util_Em
}
{
   This_Is_To_Suppress_False_Warnings_About_Block_Allocation_OptimizerSometimesSkips_GetMem_Util_1
   Memcheck:Leak
   fun:malloc
   fun:_Znwm
   fun:_Znam
   fun:_ZN7Stroika10Foundation6Memory7Private20BlockAllocationPool_ILm?EE8AllocateEm.isra.*
}
{
   This_Is_To_Suppress_False_Warnings_About_Block_Allocation_OptimizerSometimesSkips_GetMem_Util_2
   Memcheck:Leak
   fun:malloc
   fun:_Znwm
   fun:_Znam
   fun:_ZN7Stroika10Foundation6Memory7Private20BlockAllocationPool_ILm??EE8AllocateEm.isra.*
}
{
   This_Is_To_Suppress_False_Warnings_About_Block_Allocation_OptimizerSometimesSkips_GetMem_Util_HARD_TO_SEE_HOW_TODO_GOOD_MATCHER_FOR_THIS
   Memcheck:Leak
   fun:malloc
   fun:_Znwm
   fun:_Znam
   fun:_ZN7Stroika10Foundation10Containers8Concrete10Set_stdsetIiNS2_24Set_stdset_DefaultTraitsIiNS0_6Common18ComparerWithEqualsIiEENS5_21ComparerWithWellOrderIiEEEEEC1Ev
   fun:_ZN7Stroika10Foundation10Containers8Concrete11Set_FactoryIiNS1_17Set_DefaultTraitsIiNS0_6Common18ComparerWithEqualsIiEEEEE8Default_Ev
   fun:_ZN7Stroika10Foundation9Execution21SignalHandlerRegistry23GetStandardCrashSignalsEv
   fun:_ZN7Stroika11TestHarness5SetupEv
   fun:main
}






{
   Apparently_Bogus_Warning_About_StrToD_Code_calling_Looks_OK
   Memcheck:Cond
   fun:____strtod_l_internal
}
{
   Apparently_bugs_Warning_About_std_string_memleak_called_from_duration_code
   Memcheck:Leak
   fun:malloc
   fun:_Znwm
   fun:_ZN9__gnu_cxx13new_allocatorIcE8allocateEmPKv
   fun:_ZNSs4_Rep9_S_createEmmRKSaIcE
   fun:_ZNSs4_Rep8_M_cloneERKSaIcEm
   fun:_ZNSs7reserveEm
   fun:_ZNSs6appendEPKcm
   fun:_ZNSs6appendEPKc
   fun:_ZNSspLEPKc
   fun:_ZN7Stroika10Foundation4Time8Duration12UnParseTime_Ed
}
{
   Apparent_BugInLocaleCodeButProbablyQuirkOfValgrind
   Memcheck:Addr8
   fun:wcscmp
   fun:_ZNSt10moneypunctIwLb1EED1Ev
   fun:_ZNSt10moneypunctIwLb1EED0Ev
   fun:_ZNSt6locale5_ImplD1Ev
   fun:_ZNSt6localeD1Ev
   fun:_ZN7Stroika10Foundation13Configuration14FindLocaleNameERKNS0_10Characters6StringES5_
}
{
   Apparent_BugInLocaleCodeButProbablyQuirkOfValgrind
   Memcheck:Addr8
   fun:wcscmp
   fun:_ZNSt10moneypunctIwLb0EED1Ev
   fun:_ZNSt10moneypunctIwLb0EED0Ev
   fun:_ZNSt6locale5_ImplD1Ev
   fun:_ZNSt6localeD1Ev
   fun:_ZN7Stroika10Foundation13Configuration14FindLocaleNameERKNS0_10Characters6StringES5_
   fun:_ZN7Stroika10Foundation13Configuration15FindNamedLocaleERKNS0_10Characters6StringES5_
}

{
   wcscmp_appears_to_generate_false_warnings_gcc48_ubuntu
   Memcheck:Cond
   fun:wcscmp
   ...
}
{
   libcurl_passes_some_bad_value_to_getaddrinfo_maybe
   Memcheck:Param
   sendmsg(mmsg[0].msg_hdr)
   fun:sendmmsg
   fun:__libc_res_nsend
   fun:__libc_res_nquery
   fun:__libc_res_nsearch
   fun:_nss_dns_gethostbyname4_r
   fun:gaih_inet
   fun:getaddrinfo
   ...
}

