{
   <insert_a_suppression_name_here>
   Memcheck:Value8
   ...
   fun:_ZN7Stroika10Foundation2IO7Network8Transfer10Connection4SendERKNS3_7RequestE
}
{
   <insert_a_suppression_name_here>
   Memcheck:Value8
   ...
   fun:ossl_connect_common
}
{
   <insert_a_suppression_name_here>
   Memcheck:Cond
   fun:BN_bin2bn
}
{
   <insert_a_suppression_name_here>
   Memcheck:Cond
   fun:BN_cmp
}
{
   <insert_a_suppression_name_here>
   Memcheck:Cond
   fun:BN_num_bits
}
{
   <insert_a_suppression_name_here>
   Memcheck:Cond
   fun:ecp_nistz256_points_mul
}
{
   <insert_a_suppression_name_here>
   Memcheck:Cond
   fun:ecp_nistz256_point_add
}
{
   <insert_a_suppression_name_here>
   Memcheck:Cond
   fun:ecp_nistz256_get_affine
}
{
   <insert_a_suppression_name_here>
   Memcheck:Cond
   fun:BN_num_bits_word
}
{
   <insert_a_suppression_name_here>
   Memcheck:Cond
   fun:BN_num_bits_word
   fun:BN_bn2bin
   fun:ec_GFp_simple_point2oct
   fun:ssl3_send_client_key_exchange
   fun:ssl3_connect
   fun:ssl23_connect
   fun:ossl_connect_step2
   fun:ossl_connect_common
   fun:Curl_ossl_connect_nonblocking
   fun:Curl_ssl_connect_nonblocking
   fun:https_connecting
   fun:Curl_protocol_connecting
}
{
   <insert_a_suppression_name_here>
   Memcheck:Value8
   fun:BN_num_bits_word
   fun:BN_bn2bin
   fun:ec_GFp_simple_point2oct
   fun:ssl3_send_client_key_exchange
   fun:ssl3_connect
   fun:ssl23_connect
   fun:ossl_connect_step2
   fun:ossl_connect_common
   fun:Curl_ossl_connect_nonblocking
   fun:Curl_ssl_connect_nonblocking
   fun:https_connecting
   fun:Curl_protocol_connecting
}
{
   <insert_a_suppression_name_here>
   Memcheck:Cond
   fun:BN_num_bits
   fun:ec_GFp_simple_point2oct
   fun:ssl3_send_client_key_exchange
   fun:ssl3_connect
   fun:ssl23_connect
   fun:ossl_connect_step2
   fun:ossl_connect_common
   fun:Curl_ossl_connect_nonblocking
   fun:Curl_ssl_connect_nonblocking
   fun:https_connecting
   fun:Curl_protocol_connecting
   fun:multi_runsingle
}
{
   <insert_a_suppression_name_here>
   Memcheck:Cond
   fun:BN_num_bits
   fun:ec_GFp_simple_point2oct
   fun:ssl3_send_client_key_exchange
   fun:ssl3_connect
   fun:ssl23_connect
   fun:ossl_connect_step2
   fun:ossl_connect_common
   fun:Curl_ossl_connect_nonblocking
   fun:Curl_ssl_connect_nonblocking
   fun:https_connecting
   fun:Curl_protocol_connecting
   fun:multi_runsingle
}
{
   <insert_a_suppression_name_here>
   Memcheck:Cond
   fun:BN_num_bits
   fun:ec_GFp_simple_point2oct
   fun:ssl3_send_client_key_exchange
   fun:ssl3_connect
   fun:ssl23_connect
   fun:ossl_connect_step2
   fun:ossl_connect_common
   fun:Curl_ossl_connect_nonblocking
   fun:Curl_ssl_connect_nonblocking
   fun:https_connecting
   fun:Curl_protocol_connecting
   fun:multi_runsingle
}
{
   <insert_a_suppression_name_here>
   Memcheck:Value8
   fun:BN_num_bits
   fun:ec_GFp_simple_point2oct
   fun:ssl3_send_client_key_exchange
   fun:ssl3_connect
   fun:ssl23_connect
   fun:ossl_connect_step2
   fun:ossl_connect_common
   fun:Curl_ossl_connect_nonblocking
   fun:Curl_ssl_connect_nonblocking
   fun:https_connecting
   fun:Curl_protocol_connecting
   fun:multi_runsingle
}
{
   <insert_a_suppression_name_here>
   Memcheck:Cond
   fun:BN_num_bits_word
   fun:BN_bn2bin
   fun:ec_GFp_simple_point2oct
   fun:ssl3_send_client_key_exchange
   fun:ssl3_connect
   fun:ssl23_connect
   fun:ossl_connect_step2
   fun:ossl_connect_common
   fun:Curl_ossl_connect_nonblocking
   fun:Curl_ssl_connect_nonblocking
   fun:https_connecting
   fun:Curl_protocol_connecting
}
{
   <insert_a_suppression_name_here>
   Memcheck:Cond
   fun:BN_num_bits_word
   fun:BN_bn2bin
   fun:ec_GFp_simple_point2oct
   fun:ssl3_send_client_key_exchange
   fun:ssl3_connect
   fun:ssl23_connect
   fun:ossl_connect_step2
   fun:ossl_connect_common
   fun:Curl_ossl_connect_nonblocking
   fun:Curl_ssl_connect_nonblocking
   fun:https_connecting
   fun:Curl_protocol_connecting
}
{
   <insert_a_suppression_name_here>
   Memcheck:Cond
   fun:BN_num_bits_word
   fun:BN_bn2bin
   fun:ec_GFp_simple_point2oct
   fun:ssl3_send_client_key_exchange
   fun:ssl3_connect
   fun:ssl23_connect
   fun:ossl_connect_step2
   fun:ossl_connect_common
   fun:Curl_ossl_connect_nonblocking
   fun:Curl_ssl_connect_nonblocking
   fun:https_connecting
   fun:Curl_protocol_connecting
}
{
   <insert_a_suppression_name_here>
   Memcheck:Value8
   fun:BN_num_bits_word
   fun:BN_bn2bin
   fun:ec_GFp_simple_point2oct
   fun:ssl3_send_client_key_exchange
   fun:ssl3_connect
   fun:ssl23_connect
   fun:ossl_connect_step2
   fun:ossl_connect_common
   fun:Curl_ossl_connect_nonblocking
   fun:Curl_ssl_connect_nonblocking
   fun:https_connecting
   fun:Curl_protocol_connecting
}
{
   <insert_a_suppression_name_here>
   Memcheck:Cond
   fun:aes_gcm_ctrl
   fun:EVP_CIPHER_CTX_ctrl
   fun:aes_gcm_cipher
   fun:tls1_enc
   fun:ssl3_write_bytes
   fun:ssl3_do_write
   fun:ssl3_connect
   fun:ssl23_connect
   fun:ossl_connect_step2
   fun:ossl_connect_common
   fun:Curl_ossl_connect_nonblocking
   fun:Curl_ssl_connect_nonblocking
}
{
   <insert_a_suppression_name_here>
   Memcheck:Param
   write(buf)
   fun:__write_nocancel
   fun:sock_write
   fun:BIO_write
   fun:buffer_ctrl
   fun:ssl3_connect
   fun:ssl23_connect
   fun:ossl_connect_step2
   fun:ossl_connect_common
   fun:Curl_ossl_connect_nonblocking
   fun:Curl_ssl_connect_nonblocking
   fun:https_connecting
   fun:Curl_protocol_connecting
}
{
   <insert_a_suppression_name_here>
   Memcheck:Cond
   fun:aes_gcm_cipher
   fun:tls1_enc
   fun:ssl3_read_bytes
   fun:ssl3_get_message
   fun:ssl3_get_finished
   fun:ssl3_connect
   fun:ossl_connect_step2
   fun:ossl_connect_common
   fun:Curl_ossl_connect_nonblocking
   fun:Curl_ssl_connect_nonblocking
   fun:https_connecting
   fun:Curl_protocol_connecting
}
{
   <insert_a_suppression_name_here>
   Memcheck:Cond
   fun:ssl3_get_message
   fun:ssl3_get_finished
   fun:ssl3_connect
   fun:ossl_connect_step2
   fun:ossl_connect_common
   fun:Curl_ossl_connect_nonblocking
   fun:Curl_ssl_connect_nonblocking
   fun:https_connecting
   fun:Curl_protocol_connecting
   fun:multi_runsingle
   fun:curl_multi_perform
   fun:easy_transfer
}
{
   <insert_a_suppression_name_here>
   Memcheck:Cond
   fun:ssl3_get_message
   fun:ssl3_get_finished
   fun:ssl3_connect
   fun:ossl_connect_step2
   fun:ossl_connect_common
   fun:Curl_ossl_connect_nonblocking
   fun:Curl_ssl_connect_nonblocking
   fun:https_connecting
   fun:Curl_protocol_connecting
   fun:multi_runsingle
   fun:curl_multi_perform
   fun:easy_transfer
}
{
   <insert_a_suppression_name_here>
   Memcheck:Cond
   fun:ssl3_get_message
   fun:ssl3_get_finished
   fun:ssl3_connect
   fun:ossl_connect_step2
   fun:ossl_connect_common
   fun:Curl_ossl_connect_nonblocking
   fun:Curl_ssl_connect_nonblocking
   fun:https_connecting
   fun:Curl_protocol_connecting
   fun:multi_runsingle
   fun:curl_multi_perform
   fun:easy_transfer
}
{
   <insert_a_suppression_name_here>
   Memcheck:Cond
   fun:ssl3_get_message
   fun:ssl3_get_finished
   fun:ssl3_connect
   fun:ossl_connect_step2
   fun:ossl_connect_common
   fun:Curl_ossl_connect_nonblocking
   fun:Curl_ssl_connect_nonblocking
   fun:https_connecting
   fun:Curl_protocol_connecting
   fun:multi_runsingle
   fun:curl_multi_perform
   fun:easy_transfer
}
{
   <insert_a_suppression_name_here>
   Memcheck:Cond
   fun:BUF_MEM_grow_clean
   fun:ssl3_get_message
   fun:ssl3_get_finished
   fun:ssl3_connect
   fun:ossl_connect_step2
   fun:ossl_connect_common
   fun:Curl_ossl_connect_nonblocking
   fun:Curl_ssl_connect_nonblocking
   fun:https_connecting
   fun:Curl_protocol_connecting
   fun:multi_runsingle
   fun:curl_multi_perform
}
{
   <insert_a_suppression_name_here>
   Memcheck:Cond
   fun:memset
   fun:BUF_MEM_grow_clean
   fun:ssl3_get_message
   fun:ssl3_get_finished
   fun:ssl3_connect
   fun:ossl_connect_step2
   fun:ossl_connect_common
   fun:Curl_ossl_connect_nonblocking
   fun:Curl_ssl_connect_nonblocking
   fun:https_connecting
   fun:Curl_protocol_connecting
   fun:multi_runsingle
}
{
   <insert_a_suppression_name_here>
   Memcheck:Cond
   fun:memset
   fun:BUF_MEM_grow_clean
   fun:ssl3_get_message
   fun:ssl3_get_finished
   fun:ssl3_connect
   fun:ossl_connect_step2
   fun:ossl_connect_common
   fun:Curl_ossl_connect_nonblocking
   fun:Curl_ssl_connect_nonblocking
   fun:https_connecting
   fun:Curl_protocol_connecting
   fun:multi_runsingle
}
{
   <insert_a_suppression_name_here>
   Memcheck:Value8
   fun:memset
   fun:BUF_MEM_grow_clean
   fun:ssl3_get_message
   fun:ssl3_get_finished
   fun:ssl3_connect
   fun:ossl_connect_step2
   fun:ossl_connect_common
   fun:Curl_ossl_connect_nonblocking
   fun:Curl_ssl_connect_nonblocking
   fun:https_connecting
   fun:Curl_protocol_connecting
   fun:multi_runsingle
}
{
   <insert_a_suppression_name_here>
   Memcheck:Cond
   fun:memset
   fun:BUF_MEM_grow_clean
   fun:ssl3_get_message
   fun:ssl3_get_finished
   fun:ssl3_connect
   fun:ossl_connect_step2
   fun:ossl_connect_common
   fun:Curl_ossl_connect_nonblocking
   fun:Curl_ssl_connect_nonblocking
   fun:https_connecting
   fun:Curl_protocol_connecting
   fun:multi_runsingle
}
{
   <insert_a_suppression_name_here>
   Memcheck:Cond
   fun:memset
   fun:BUF_MEM_grow_clean
   fun:ssl3_get_message
   fun:ssl3_get_finished
   fun:ssl3_connect
   fun:ossl_connect_step2
   fun:ossl_connect_common
   fun:Curl_ossl_connect_nonblocking
   fun:Curl_ssl_connect_nonblocking
   fun:https_connecting
   fun:Curl_protocol_connecting
   fun:multi_runsingle
}
{
   <insert_a_suppression_name_here>
   Memcheck:Value8
   fun:memset
   fun:BUF_MEM_grow_clean
   fun:ssl3_get_message
   fun:ssl3_get_finished
   fun:ssl3_connect
   fun:ossl_connect_step2
   fun:ossl_connect_common
   fun:Curl_ossl_connect_nonblocking
   fun:Curl_ssl_connect_nonblocking
   fun:https_connecting
   fun:Curl_protocol_connecting
   fun:multi_runsingle
}
{
   <insert_a_suppression_name_here>
   Memcheck:Cond
   fun:memset
   fun:BUF_MEM_grow_clean
   fun:ssl3_get_message
   fun:ssl3_get_finished
   fun:ssl3_connect
   fun:ossl_connect_step2
   fun:ossl_connect_common
   fun:Curl_ossl_connect_nonblocking
   fun:Curl_ssl_connect_nonblocking
   fun:https_connecting
   fun:Curl_protocol_connecting
   fun:multi_runsingle
}
{
   <insert_a_suppression_name_here>
   Memcheck:Cond
   fun:ssl3_get_message
   fun:ssl3_get_finished
   fun:ssl3_connect
   fun:ossl_connect_step2
   fun:ossl_connect_common
   fun:Curl_ossl_connect_nonblocking
   fun:Curl_ssl_connect_nonblocking
   fun:https_connecting
   fun:Curl_protocol_connecting
   fun:multi_runsingle
   fun:curl_multi_perform
   fun:easy_transfer
}
{
   <insert_a_suppression_name_here>
   Memcheck:Cond
   fun:ssl3_get_message
   fun:ssl3_get_finished
   fun:ssl3_connect
   fun:ossl_connect_step2
   fun:ossl_connect_common
   fun:Curl_ossl_connect_nonblocking
   fun:Curl_ssl_connect_nonblocking
   fun:https_connecting
   fun:Curl_protocol_connecting
   fun:multi_runsingle
   fun:curl_multi_perform
   fun:easy_transfer
}
{
   <insert_a_suppression_name_here>
   Memcheck:Cond
   fun:ssl3_read_bytes
   fun:ssl3_get_message
   fun:ssl3_get_finished
   fun:ssl3_connect
   fun:ossl_connect_step2
   fun:ossl_connect_common
   fun:Curl_ossl_connect_nonblocking
   fun:Curl_ssl_connect_nonblocking
   fun:https_connecting
   fun:Curl_protocol_connecting
   fun:multi_runsingle
   fun:curl_multi_perform
}
{
   <insert_a_suppression_name_here>
   Memcheck:Cond
   fun:memcpy@@GLIBC_2.14
   fun:ssl3_read_bytes
   fun:ssl3_get_message
   fun:ssl3_get_finished
   fun:ssl3_connect
   fun:ossl_connect_step2
   fun:ossl_connect_common
   fun:Curl_ossl_connect_nonblocking
   fun:Curl_ssl_connect_nonblocking
   fun:https_connecting
   fun:Curl_protocol_connecting
   fun:multi_runsingle
}
{
   <insert_a_suppression_name_here>
   Memcheck:Cond
   fun:memcpy@@GLIBC_2.14
   fun:ssl3_read_bytes
   fun:ssl3_get_message
   fun:ssl3_get_finished
   fun:ssl3_connect
   fun:ossl_connect_step2
   fun:ossl_connect_common
   fun:Curl_ossl_connect_nonblocking
   fun:Curl_ssl_connect_nonblocking
   fun:https_connecting
   fun:Curl_protocol_connecting
   fun:multi_runsingle
}
{
   <insert_a_suppression_name_here>
   Memcheck:Cond
   fun:memcpy@@GLIBC_2.14
   fun:ssl3_read_bytes
   fun:ssl3_get_message
   fun:ssl3_get_finished
   fun:ssl3_connect
   fun:ossl_connect_step2
   fun:ossl_connect_common
   fun:Curl_ossl_connect_nonblocking
   fun:Curl_ssl_connect_nonblocking
   fun:https_connecting
   fun:Curl_protocol_connecting
   fun:multi_runsingle
}
{
   <insert_a_suppression_name_here>
   Memcheck:Cond
   fun:memcpy@@GLIBC_2.14
   fun:ssl3_read_bytes
   fun:ssl3_get_message
   fun:ssl3_get_finished
   fun:ssl3_connect
   fun:ossl_connect_step2
   fun:ossl_connect_common
   fun:Curl_ossl_connect_nonblocking
   fun:Curl_ssl_connect_nonblocking
   fun:https_connecting
   fun:Curl_protocol_connecting
   fun:multi_runsingle
}
{
   <insert_a_suppression_name_here>
   Memcheck:Cond
   fun:memcpy@@GLIBC_2.14
   fun:ssl3_read_bytes
   fun:ssl3_get_message
   fun:ssl3_get_finished
   fun:ssl3_connect
   fun:ossl_connect_step2
   fun:ossl_connect_common
   fun:Curl_ossl_connect_nonblocking
   fun:Curl_ssl_connect_nonblocking
   fun:https_connecting
   fun:Curl_protocol_connecting
   fun:multi_runsingle
}
{
   <insert_a_suppression_name_here>
   Memcheck:Cond
   fun:memcpy@@GLIBC_2.14
   fun:ssl3_read_bytes
   fun:ssl3_get_message
   fun:ssl3_get_finished
   fun:ssl3_connect
   fun:ossl_connect_step2
   fun:ossl_connect_common
   fun:Curl_ossl_connect_nonblocking
   fun:Curl_ssl_connect_nonblocking
   fun:https_connecting
   fun:Curl_protocol_connecting
   fun:multi_runsingle
}
{
   <insert_a_suppression_name_here>
   Memcheck:Cond
   fun:memcpy@@GLIBC_2.14
   fun:ssl3_read_bytes
   fun:ssl3_get_message
   fun:ssl3_get_finished
   fun:ssl3_connect
   fun:ossl_connect_step2
   fun:ossl_connect_common
   fun:Curl_ossl_connect_nonblocking
   fun:Curl_ssl_connect_nonblocking
   fun:https_connecting
   fun:Curl_protocol_connecting
   fun:multi_runsingle
}
{
   <insert_a_suppression_name_here>
   Memcheck:Cond
   fun:ssl3_read_bytes
   fun:ssl3_get_message
   fun:ssl3_get_finished
   fun:ssl3_connect
   fun:ossl_connect_step2
   fun:ossl_connect_common
   fun:Curl_ossl_connect_nonblocking
   fun:Curl_ssl_connect_nonblocking
   fun:https_connecting
   fun:Curl_protocol_connecting
   fun:multi_runsingle
   fun:curl_multi_perform
}
{
   <insert_a_suppression_name_here>
   Memcheck:Cond
   fun:ssl3_get_message
   fun:ssl3_get_finished
   fun:ssl3_connect
   fun:ossl_connect_step2
   fun:ossl_connect_common
   fun:Curl_ossl_connect_nonblocking
   fun:Curl_ssl_connect_nonblocking
   fun:https_connecting
   fun:Curl_protocol_connecting
   fun:multi_runsingle
   fun:curl_multi_perform
   fun:easy_transfer
}
{
   <insert_a_suppression_name_here>
   Memcheck:Cond
   fun:ssl3_get_message
   fun:ssl3_get_finished
   fun:ssl3_connect
   fun:ossl_connect_step2
   fun:ossl_connect_common
   fun:Curl_ossl_connect_nonblocking
   fun:Curl_ssl_connect_nonblocking
   fun:https_connecting
   fun:Curl_protocol_connecting
   fun:multi_runsingle
   fun:curl_multi_perform
   fun:easy_transfer
}
{
   <insert_a_suppression_name_here>
   Memcheck:Cond
   fun:ssl3_get_message
   fun:ssl3_get_finished
   fun:ssl3_connect
   fun:ossl_connect_step2
   fun:ossl_connect_common
   fun:Curl_ossl_connect_nonblocking
   fun:Curl_ssl_connect_nonblocking
   fun:https_connecting
   fun:Curl_protocol_connecting
   fun:multi_runsingle
   fun:curl_multi_perform
   fun:easy_transfer
}
{
   <insert_a_suppression_name_here>
   Memcheck:Cond
   fun:SHA256_Update
   fun:ssl3_finish_mac
   fun:ssl3_get_message
   fun:ssl3_get_finished
   fun:ssl3_connect
   fun:ossl_connect_step2
   fun:ossl_connect_common
   fun:Curl_ossl_connect_nonblocking
   fun:Curl_ssl_connect_nonblocking
   fun:https_connecting
   fun:Curl_protocol_connecting
   fun:multi_runsingle
}
{
   <insert_a_suppression_name_here>
   Memcheck:Cond
   fun:SHA256_Update
   fun:ssl3_finish_mac
   fun:ssl3_get_message
   fun:ssl3_get_finished
   fun:ssl3_connect
   fun:ossl_connect_step2
   fun:ossl_connect_common
   fun:Curl_ossl_connect_nonblocking
   fun:Curl_ssl_connect_nonblocking
   fun:https_connecting
   fun:Curl_protocol_connecting
   fun:multi_runsingle
}
{
   <insert_a_suppression_name_here>
   Memcheck:Cond
   fun:SHA256_Update
   fun:ssl3_finish_mac
   fun:ssl3_get_message
   fun:ssl3_get_finished
   fun:ssl3_connect
   fun:ossl_connect_step2
   fun:ossl_connect_common
   fun:Curl_ossl_connect_nonblocking
   fun:Curl_ssl_connect_nonblocking
   fun:https_connecting
   fun:Curl_protocol_connecting
   fun:multi_runsingle
}
{
   <insert_a_suppression_name_here>
   Memcheck:Cond
   fun:SHA256_Update
   fun:ssl3_finish_mac
   fun:ssl3_get_message
   fun:ssl3_get_finished
   fun:ssl3_connect
   fun:ossl_connect_step2
   fun:ossl_connect_common
   fun:Curl_ossl_connect_nonblocking
   fun:Curl_ssl_connect_nonblocking
   fun:https_connecting
   fun:Curl_protocol_connecting
   fun:multi_runsingle
}
{
   <insert_a_suppression_name_here>
   Memcheck:Cond
   fun:memcpy@@GLIBC_2.14
   fun:SHA256_Update
   fun:ssl3_finish_mac
   fun:ssl3_get_message
   fun:ssl3_get_finished
   fun:ssl3_connect
   fun:ossl_connect_step2
   fun:ossl_connect_common
   fun:Curl_ossl_connect_nonblocking
   fun:Curl_ssl_connect_nonblocking
   fun:https_connecting
   fun:Curl_protocol_connecting
}
{
   <insert_a_suppression_name_here>
   Memcheck:Cond
   fun:memcpy@@GLIBC_2.14
   fun:SHA256_Update
   fun:ssl3_finish_mac
   fun:ssl3_get_message
   fun:ssl3_get_finished
   fun:ssl3_connect
   fun:ossl_connect_step2
   fun:ossl_connect_common
   fun:Curl_ossl_connect_nonblocking
   fun:Curl_ssl_connect_nonblocking
   fun:https_connecting
   fun:Curl_protocol_connecting
}
{
   <insert_a_suppression_name_here>
   Memcheck:Cond
   fun:memcpy@@GLIBC_2.14
   fun:SHA256_Update
   fun:ssl3_finish_mac
   fun:ssl3_get_message
   fun:ssl3_get_finished
   fun:ssl3_connect
   fun:ossl_connect_step2
   fun:ossl_connect_common
   fun:Curl_ossl_connect_nonblocking
   fun:Curl_ssl_connect_nonblocking
   fun:https_connecting
   fun:Curl_protocol_connecting
}
{
   <insert_a_suppression_name_here>
   Memcheck:Cond
   fun:memcpy@@GLIBC_2.14
   fun:SHA256_Update
   fun:ssl3_finish_mac
   fun:ssl3_get_message
   fun:ssl3_get_finished
   fun:ssl3_connect
   fun:ossl_connect_step2
   fun:ossl_connect_common
   fun:Curl_ossl_connect_nonblocking
   fun:Curl_ssl_connect_nonblocking
   fun:https_connecting
   fun:Curl_protocol_connecting
}
{
   <insert_a_suppression_name_here>
   Memcheck:Cond
   fun:memcpy@@GLIBC_2.14
   fun:SHA256_Update
   fun:ssl3_finish_mac
   fun:ssl3_get_message
   fun:ssl3_get_finished
   fun:ssl3_connect
   fun:ossl_connect_step2
   fun:ossl_connect_common
   fun:Curl_ossl_connect_nonblocking
   fun:Curl_ssl_connect_nonblocking
   fun:https_connecting
   fun:Curl_protocol_connecting
}
{
   <insert_a_suppression_name_here>
   Memcheck:Cond
   fun:ssl3_get_finished
   fun:ssl3_connect
   fun:ossl_connect_step2
   fun:ossl_connect_common
   fun:Curl_ossl_connect_nonblocking
   fun:Curl_ssl_connect_nonblocking
   fun:https_connecting
   fun:Curl_protocol_connecting
   fun:multi_runsingle
   fun:curl_multi_perform
   fun:easy_transfer
   fun:easy_perform
}
{
   <insert_a_suppression_name_here>
   Memcheck:Cond
   fun:ssl3_get_finished
   fun:ssl3_connect
   fun:ossl_connect_step2
   fun:ossl_connect_common
   fun:Curl_ossl_connect_nonblocking
   fun:Curl_ssl_connect_nonblocking
   fun:https_connecting
   fun:Curl_protocol_connecting
   fun:multi_runsingle
   fun:curl_multi_perform
   fun:easy_transfer
   fun:easy_perform
}
{
   <insert_a_suppression_name_here>
   Memcheck:Cond
   fun:ssl3_read_bytes
   fun:ssl3_read
   fun:ossl_recv
   fun:Curl_read
   fun:readwrite_data
   fun:Curl_readwrite
   fun:multi_runsingle
   fun:curl_multi_perform
   fun:easy_transfer
   fun:easy_perform
   fun:curl_easy_perform
   fun:_ZN7Stroika10Foundation2IO7Network8Transfer18Connection_LibCurl4Rep_4SendERKNS3_7RequestE
}
{
   <insert_a_suppression_name_here>
   Memcheck:Cond
   fun:memchr
   fun:Curl_http_readwrite_headers
   fun:readwrite_data
   fun:Curl_readwrite
   fun:multi_runsingle
   fun:curl_multi_perform
   fun:easy_transfer
   fun:easy_perform
   fun:curl_easy_perform
   fun:_ZN7Stroika10Foundation2IO7Network8Transfer18Connection_LibCurl4Rep_4SendERKNS3_7RequestE
   fun:_ZN7Stroika10Foundation2IO7Network8Transfer10Connection4SendERKNS3_7RequestE
   fun:_ZN7Stroika10Foundation2IO7Network8Transfer10Connection3GETERKNS0_10Containers7MappingINS0_10Characters6StringES8_NS5_21Mapping_DefaultTraitsIS8_S8_NS0_6Common18ComparerWithEqualsIS8_EEEEEE
}
{
   <insert_a_suppression_name_here>
   Memcheck:Cond
   fun:memchr
   fun:Curl_http_readwrite_headers
   fun:readwrite_data
   fun:Curl_readwrite
   fun:multi_runsingle
   fun:curl_multi_perform
   fun:easy_transfer
   fun:easy_perform
   fun:curl_easy_perform
   fun:_ZN7Stroika10Foundation2IO7Network8Transfer18Connection_LibCurl4Rep_4SendERKNS3_7RequestE
   fun:_ZN7Stroika10Foundation2IO7Network8Transfer10Connection4SendERKNS3_7RequestE
   fun:_ZN7Stroika10Foundation2IO7Network8Transfer10Connection3GETERKNS0_10Containers7MappingINS0_10Characters6StringES8_NS5_21Mapping_DefaultTraitsIS8_S8_NS0_6Common18ComparerWithEqualsIS8_EEEEEE
}
{
   <insert_a_suppression_name_here>
   Memcheck:Cond
   fun:Curl_raw_nequal
   fun:checkhttpprefix
   fun:checkprotoprefix
   fun:Curl_http_readwrite_headers
   fun:readwrite_data
   fun:Curl_readwrite
   fun:multi_runsingle
   fun:curl_multi_perform
   fun:easy_transfer
   fun:easy_perform
   fun:curl_easy_perform
   fun:_ZN7Stroika10Foundation2IO7Network8Transfer18Connection_LibCurl4Rep_4SendERKNS3_7RequestE
}
{
   <insert_a_suppression_name_here>
   Memcheck:Cond
   fun:Curl_raw_toupper
   fun:Curl_raw_nequal
   fun:checkhttpprefix
   fun:checkprotoprefix
   fun:Curl_http_readwrite_headers
   fun:readwrite_data
   fun:Curl_readwrite
   fun:multi_runsingle
   fun:curl_multi_perform
   fun:easy_transfer
   fun:easy_perform
   fun:curl_easy_perform
}
{
   <insert_a_suppression_name_here>
   Memcheck:Cond
   fun:Curl_raw_nequal
   fun:checkhttpprefix
   fun:checkprotoprefix
   fun:Curl_http_readwrite_headers
   fun:readwrite_data
   fun:Curl_readwrite
   fun:multi_runsingle
   fun:curl_multi_perform
   fun:easy_transfer
   fun:easy_perform
   fun:curl_easy_perform
   fun:_ZN7Stroika10Foundation2IO7Network8Transfer18Connection_LibCurl4Rep_4SendERKNS3_7RequestE
}
{
   <insert_a_suppression_name_here>
   Memcheck:Cond
   fun:Curl_http_readwrite_headers
   fun:readwrite_data
   fun:Curl_readwrite
   fun:multi_runsingle
   fun:curl_multi_perform
   fun:easy_transfer
   fun:easy_perform
   fun:curl_easy_perform
   fun:_ZN7Stroika10Foundation2IO7Network8Transfer18Connection_LibCurl4Rep_4SendERKNS3_7RequestE
   fun:_ZN7Stroika10Foundation2IO7Network8Transfer10Connection4SendERKNS3_7RequestE
   fun:_ZN7Stroika10Foundation2IO7Network8Transfer10Connection3GETERKNS0_10Containers7MappingINS0_10Characters6StringES8_NS5_21Mapping_DefaultTraitsIS8_S8_NS0_6Common18ComparerWithEqualsIS8_EEEEEE
   fun:_ZN12_GLOBAL__N_130Test_1_SimpleConnnectionTests_8Private_32Test_2_SimpleFetch_SSL_Google_C_EN7Stroika10Foundation2IO7Network8Transfer10ConnectionE
}
{
   <insert_a_suppression_name_here>
   Memcheck:Cond
   fun:Curl_http_readwrite_headers
   fun:readwrite_data
   fun:Curl_readwrite
   fun:multi_runsingle
   fun:curl_multi_perform
   fun:easy_transfer
   fun:easy_perform
   fun:curl_easy_perform
   fun:_ZN7Stroika10Foundation2IO7Network8Transfer18Connection_LibCurl4Rep_4SendERKNS3_7RequestE
   fun:_ZN7Stroika10Foundation2IO7Network8Transfer10Connection4SendERKNS3_7RequestE
   fun:_ZN7Stroika10Foundation2IO7Network8Transfer10Connection3GETERKNS0_10Containers7MappingINS0_10Characters6StringES8_NS5_21Mapping_DefaultTraitsIS8_S8_NS0_6Common18ComparerWithEqualsIS8_EEEEEE
   fun:_ZN12_GLOBAL__N_130Test_1_SimpleConnnectionTests_8Private_32Test_2_SimpleFetch_SSL_Google_C_EN7Stroika10Foundation2IO7Network8Transfer10ConnectionE
}
{
   <insert_a_suppression_name_here>
   Memcheck:Cond
   fun:rawmemchr
   fun:_IO_str_init_static_internal
   fun:__isoc99_vsscanf
   fun:__isoc99_sscanf
   fun:Curl_http_readwrite_headers
   fun:readwrite_data
   fun:Curl_readwrite
   fun:multi_runsingle
   fun:curl_multi_perform
   fun:easy_transfer
   fun:easy_perform
   fun:curl_easy_perform
}
{
   <insert_a_suppression_name_here>
   Memcheck:Cond
   fun:rawmemchr
   fun:_IO_str_init_static_internal
   fun:__isoc99_vsscanf
   fun:__isoc99_sscanf
   fun:Curl_http_readwrite_headers
   fun:readwrite_data
   fun:Curl_readwrite
   fun:multi_runsingle
   fun:curl_multi_perform
   fun:easy_transfer
   fun:easy_perform
   fun:curl_easy_perform
}
{
   <insert_a_suppression_name_here>
   Memcheck:Value8
   fun:_IO_vfscanf
   fun:__isoc99_vsscanf
   fun:__isoc99_sscanf
   fun:Curl_http_readwrite_headers
   fun:readwrite_data
   fun:Curl_readwrite
   fun:multi_runsingle
   fun:curl_multi_perform
   fun:easy_transfer
   fun:easy_perform
   fun:curl_easy_perform
   fun:_ZN7Stroika10Foundation2IO7Network8Transfer18Connection_LibCurl4Rep_4SendERKNS3_7RequestE
}
{
   <insert_a_suppression_name_here>
   Memcheck:Cond
   fun:_IO_vfscanf
   fun:__isoc99_vsscanf
   fun:__isoc99_sscanf
   fun:Curl_http_readwrite_headers
   fun:readwrite_data
   fun:Curl_readwrite
   fun:multi_runsingle
   fun:curl_multi_perform
   fun:easy_transfer
   fun:easy_perform
   fun:curl_easy_perform
   fun:_ZN7Stroika10Foundation2IO7Network8Transfer18Connection_LibCurl4Rep_4SendERKNS3_7RequestE
}
{
   <insert_a_suppression_name_here>
   Memcheck:Cond
   fun:_IO_vfscanf
   fun:__isoc99_vsscanf
   fun:__isoc99_sscanf
   fun:Curl_http_readwrite_headers
   fun:readwrite_data
   fun:Curl_readwrite
   fun:multi_runsingle
   fun:curl_multi_perform
   fun:easy_transfer
   fun:easy_perform
   fun:curl_easy_perform
   fun:_ZN7Stroika10Foundation2IO7Network8Transfer18Connection_LibCurl4Rep_4SendERKNS3_7RequestE
}
{
   <insert_a_suppression_name_here>
   Memcheck:Cond
   fun:_IO_vfscanf
   fun:__isoc99_vsscanf
   fun:__isoc99_sscanf
   fun:Curl_http_readwrite_headers
   fun:readwrite_data
   fun:Curl_readwrite
   fun:multi_runsingle
   fun:curl_multi_perform
   fun:easy_transfer
   fun:easy_perform
   fun:curl_easy_perform
   fun:_ZN7Stroika10Foundation2IO7Network8Transfer18Connection_LibCurl4Rep_4SendERKNS3_7RequestE
}
{
   <insert_a_suppression_name_here>
   Memcheck:Cond
   fun:_IO_vfscanf
   fun:__isoc99_vsscanf
   fun:__isoc99_sscanf
   fun:Curl_http_readwrite_headers
   fun:readwrite_data
   fun:Curl_readwrite
   fun:multi_runsingle
   fun:curl_multi_perform
   fun:easy_transfer
   fun:easy_perform
   fun:curl_easy_perform
   fun:_ZN7Stroika10Foundation2IO7Network8Transfer18Connection_LibCurl4Rep_4SendERKNS3_7RequestE
}
{
   <insert_a_suppression_name_here>
   Memcheck:Value8
   fun:_IO_vfscanf
   fun:__isoc99_vsscanf
   fun:__isoc99_sscanf
   fun:Curl_http_readwrite_headers
   fun:readwrite_data
   fun:Curl_readwrite
   fun:multi_runsingle
   fun:curl_multi_perform
   fun:easy_transfer
   fun:easy_perform
   fun:curl_easy_perform
   fun:_ZN7Stroika10Foundation2IO7Network8Transfer18Connection_LibCurl4Rep_4SendERKNS3_7RequestE
}
{
   <insert_a_suppression_name_here>
   Memcheck:Cond
   fun:_IO_vfscanf
   fun:__isoc99_vsscanf
   fun:__isoc99_sscanf
   fun:Curl_http_readwrite_headers
   fun:readwrite_data
   fun:Curl_readwrite
   fun:multi_runsingle
   fun:curl_multi_perform
   fun:easy_transfer
   fun:easy_perform
   fun:curl_easy_perform
   fun:_ZN7Stroika10Foundation2IO7Network8Transfer18Connection_LibCurl4Rep_4SendERKNS3_7RequestE
}
{
   <insert_a_suppression_name_here>
   Memcheck:Cond
   fun:_IO_sputbackc
   fun:_IO_vfscanf
   fun:__isoc99_vsscanf
   fun:__isoc99_sscanf
   fun:Curl_http_readwrite_headers
   fun:readwrite_data
   fun:Curl_readwrite
   fun:multi_runsingle
   fun:curl_multi_perform
   fun:easy_transfer
   fun:easy_perform
   fun:curl_easy_perform
}
{
   <insert_a_suppression_name_here>
   Memcheck:Cond
   fun:_IO_vfscanf
   fun:__isoc99_vsscanf
   fun:__isoc99_sscanf
   fun:Curl_http_readwrite_headers
   fun:readwrite_data
   fun:Curl_readwrite
   fun:multi_runsingle
   fun:curl_multi_perform
   fun:easy_transfer
   fun:easy_perform
   fun:curl_easy_perform
   fun:_ZN7Stroika10Foundation2IO7Network8Transfer18Connection_LibCurl4Rep_4SendERKNS3_7RequestE
}
{
   <insert_a_suppression_name_here>
   Memcheck:Cond
   fun:_IO_vfscanf
   fun:__isoc99_vsscanf
   fun:__isoc99_sscanf
   fun:Curl_http_readwrite_headers
   fun:readwrite_data
   fun:Curl_readwrite
   fun:multi_runsingle
   fun:curl_multi_perform
   fun:easy_transfer
   fun:easy_perform
   fun:curl_easy_perform
   fun:_ZN7Stroika10Foundation2IO7Network8Transfer18Connection_LibCurl4Rep_4SendERKNS3_7RequestE
}
{
   <insert_a_suppression_name_here>
   Memcheck:Cond
   fun:_IO_vfscanf
   fun:__isoc99_vsscanf
   fun:__isoc99_sscanf
   fun:Curl_http_readwrite_headers
   fun:readwrite_data
   fun:Curl_readwrite
   fun:multi_runsingle
   fun:curl_multi_perform
   fun:easy_transfer
   fun:easy_perform
   fun:curl_easy_perform
   fun:_ZN7Stroika10Foundation2IO7Network8Transfer18Connection_LibCurl4Rep_4SendERKNS3_7RequestE
}
{
   <insert_a_suppression_name_here>
   Memcheck:Cond
   fun:_IO_vfscanf
   fun:__isoc99_vsscanf
   fun:__isoc99_sscanf
   fun:Curl_http_readwrite_headers
   fun:readwrite_data
   fun:Curl_readwrite
   fun:multi_runsingle
   fun:curl_multi_perform
   fun:easy_transfer
   fun:easy_perform
   fun:curl_easy_perform
   fun:_ZN7Stroika10Foundation2IO7Network8Transfer18Connection_LibCurl4Rep_4SendERKNS3_7RequestE
}
{
   <insert_a_suppression_name_here>
   Memcheck:Cond
   fun:_IO_vfscanf
   fun:__isoc99_vsscanf
   fun:__isoc99_sscanf
   fun:Curl_http_readwrite_headers
   fun:readwrite_data
   fun:Curl_readwrite
   fun:multi_runsingle
   fun:curl_multi_perform
   fun:easy_transfer
   fun:easy_perform
   fun:curl_easy_perform
   fun:_ZN7Stroika10Foundation2IO7Network8Transfer18Connection_LibCurl4Rep_4SendERKNS3_7RequestE
}
{
   <insert_a_suppression_name_here>
   Memcheck:Cond
   fun:_IO_vfscanf
   fun:__isoc99_vsscanf
   fun:__isoc99_sscanf
   fun:Curl_http_readwrite_headers
   fun:readwrite_data
   fun:Curl_readwrite
   fun:multi_runsingle
   fun:curl_multi_perform
   fun:easy_transfer
   fun:easy_perform
   fun:curl_easy_perform
   fun:_ZN7Stroika10Foundation2IO7Network8Transfer18Connection_LibCurl4Rep_4SendERKNS3_7RequestE
}
{
   <insert_a_suppression_name_here>
   Memcheck:Cond
   fun:_IO_vfscanf
   fun:__isoc99_vsscanf
   fun:__isoc99_sscanf
   fun:Curl_http_readwrite_headers
   fun:readwrite_data
   fun:Curl_readwrite
   fun:multi_runsingle
   fun:curl_multi_perform
   fun:easy_transfer
   fun:easy_perform
   fun:curl_easy_perform
   fun:_ZN7Stroika10Foundation2IO7Network8Transfer18Connection_LibCurl4Rep_4SendERKNS3_7RequestE
}
{
   <insert_a_suppression_name_here>
   Memcheck:Cond
   fun:_IO_vfscanf
   fun:__isoc99_vsscanf
   fun:__isoc99_sscanf
   fun:Curl_http_readwrite_headers
   fun:readwrite_data
   fun:Curl_readwrite
   fun:multi_runsingle
   fun:curl_multi_perform
   fun:easy_transfer
   fun:easy_perform
   fun:curl_easy_perform
   fun:_ZN7Stroika10Foundation2IO7Network8Transfer18Connection_LibCurl4Rep_4SendERKNS3_7RequestE
}
{
   <insert_a_suppression_name_here>
   Memcheck:Cond
   fun:_IO_vfscanf
   fun:__isoc99_vsscanf
   fun:__isoc99_sscanf
   fun:Curl_http_readwrite_headers
   fun:readwrite_data
   fun:Curl_readwrite
   fun:multi_runsingle
   fun:curl_multi_perform
   fun:easy_transfer
   fun:easy_perform
   fun:curl_easy_perform
   fun:_ZN7Stroika10Foundation2IO7Network8Transfer18Connection_LibCurl4Rep_4SendERKNS3_7RequestE
}
{
   <insert_a_suppression_name_here>
   Memcheck:Cond
   fun:_IO_sputbackc
   fun:_IO_vfscanf
   fun:__isoc99_vsscanf
   fun:__isoc99_sscanf
   fun:Curl_http_readwrite_headers
   fun:readwrite_data
   fun:Curl_readwrite
   fun:multi_runsingle
   fun:curl_multi_perform
   fun:easy_transfer
   fun:easy_perform
   fun:curl_easy_perform
}
{
   <insert_a_suppression_name_here>
   Memcheck:Value8
   fun:____strtol_l_internal
   fun:_IO_vfscanf
   fun:__isoc99_vsscanf
   fun:__isoc99_sscanf
   fun:Curl_http_readwrite_headers
   fun:readwrite_data
   fun:Curl_readwrite
   fun:multi_runsingle
   fun:curl_multi_perform
   fun:easy_transfer
   fun:easy_perform
   fun:curl_easy_perform
}
{
   <insert_a_suppression_name_here>
   Memcheck:Cond
   fun:____strtol_l_internal
   fun:_IO_vfscanf
   fun:__isoc99_vsscanf
   fun:__isoc99_sscanf
   fun:Curl_http_readwrite_headers
   fun:readwrite_data
   fun:Curl_readwrite
   fun:multi_runsingle
   fun:curl_multi_perform
   fun:easy_transfer
   fun:easy_perform
   fun:curl_easy_perform
}
{
   <insert_a_suppression_name_here>
   Memcheck:Cond
   fun:__memcmp_sse4_1
   fun:RSA_verify
}
{
   <insert_a_suppression_name_here>
   Memcheck:Cond
   ...
   fun:_ZN12_GLOBAL__N_130Test_1_SimpleConnnectionTests_8Private_32Test_2_SimpleFetch_SSL_Google_C_EN7Stroika10Foundation2IO7Network8Transfer10ConnectionE
}
{
   <insert_a_suppression_name_here>
   Memcheck:Value8
   ...
   fun:_ZN7Stroika10Foundation2IO7Network8Transfer18Connection_LibCurl4Rep_21ResponseWriteHandler_EPKhm
}
{
   <insert_a_suppression_name_here>
   Memcheck:Leak
   ...
   fun:curl_easy_init
}
{
   <insert_a_suppression_name_here>
   Memcheck:Value8
   fun:memcpy@GLIBC_2.2.5
   fun:_ZNSt11__copy_moveILb0ELb1ESt26random_access_iterator_tagE8__copy_mIhEEPT_PKS3_S6_S4_
   fun:_ZSt13__copy_move_aILb0EPKhPhET1_T0_S4_S3_
   fun:_ZSt14__copy_move_a2ILb0EPKhPhET1_T0_S4_S3_
   fun:_ZSt4copyIPKhPhET0_T_S4_S3_
   fun:_ZNSt20__uninitialized_copyILb1EE13__uninit_copyIPKhPhEET0_T_S6_S5_
   fun:_ZSt18uninitialized_copyIPKhPhET0_T_S4_S3_
   fun:_ZSt22__uninitialized_copy_aIPKhPhhET0_T_S4_S3_RSaIT1_E
   fun:_ZNSt6vectorIhSaIhEE15_M_range_insertIPKhEEvN9__gnu_cxx17__normal_iteratorIPhS1_EET_S9_St20forward_iterator_tag
   fun:_ZNSt6vectorIhSaIhEE18_M_insert_dispatchIPKhEEvN9__gnu_cxx17__normal_iteratorIPhS1_EET_S9_St12__false_type
   fun:_ZNSt6vectorIhSaIhEE6insertIPKhvEEN9__gnu_cxx17__normal_iteratorIPhS1_EENS6_IS4_S1_EET_SA_
   fun:_ZN7Stroika10Foundation2IO7Network8Transfer18Connection_LibCurl4Rep_21ResponseWriteHandler_EPKhm
}
{
   <insert_a_suppression_name_here>
   Memcheck:Cond
   fun:____strtol_l_internal
   fun:_IO_vfscanf
   fun:__isoc99_vsscanf
   fun:__isoc99_sscanf
   fun:Curl_http_readwrite_headers
   fun:readwrite_data
   fun:Curl_readwrite
   fun:multi_runsingle
   fun:curl_multi_perform
   fun:easy_transfer
   fun:easy_perform
   fun:curl_easy_perform
}
{
   <insert_a_suppression_name_here>
   Memcheck:Cond
   fun:____strtol_l_internal
   fun:_IO_vfscanf
   fun:__isoc99_vsscanf
   fun:__isoc99_sscanf
   fun:Curl_http_readwrite_headers
   fun:readwrite_data
   fun:Curl_readwrite
   fun:multi_runsingle
   fun:curl_multi_perform
   fun:easy_transfer
   fun:easy_perform
   fun:curl_easy_perform
}
{
   <insert_a_suppression_name_here>
   Memcheck:Cond
   ...
   fun:easy_perform
}
{
   <insert_a_suppression_name_here>
   Memcheck:Param
   write(buf)
   ...
   fun:https_connecting
}
{
   <insert_a_suppression_name_here>
   Memcheck:Cond
   ...
   fun:_ZN7Stroika10Foundation2IO7Network8Transfer18Connection_LibCurl4Rep_4SendERKNS3_7RequestE
}
{
   <insert_a_suppression_name_here>
   Memcheck:Cond
   ...
   fun:_ZN7Stroika10Foundation2IO7Network8Transfer18Connection_LibCurl4Rep_21ResponseWriteHandler_EPKhm
}
{
   <insert_a_suppression_name_here>
   Memcheck:Cond
   ...
   fun:_ZN7Stroika10Foundation2IO7Network8Transfer18Connection_LibCurl4Rep_21ResponseWriteHandler_EPKhm
}

{
   <insert_a_suppression_name_here>
   Memcheck:Param
   write(buf)
   fun:__write_nocancel
   ...
   fun:curl_multi_perform
}
{
   <insert_a_suppression_name_here>
   Memcheck:Value8
   ...
   fun:Curl_http_readwrite_headers
}
{
   <insert_a_suppression_name_here>
   Memcheck:Cond
   ...
   fun:Curl_http_readwrite_headers
}
{
   <insert_a_suppression_name_here>
   Memcheck:Cond
   fun:_ZNK7Stroika10Foundation10Characters6String4FindENS1_9CharacterEmNS1_14CompareOptionsE
   fun:_ZNK7Stroika10Foundation10Characters6String4findEwm
   fun:_ZN7Stroika10Foundation2IO7Network8Transfer18Connection_LibCurl4Rep_27ResponseHeaderWriteHandler_EPKhm
   fun:_ZN7Stroika10Foundation2IO7Network8Transfer18Connection_LibCurl4Rep_29s_ResponseHeaderWriteHandler_EPvmmS6_
   fun:Curl_client_chop_write
   fun:Curl_client_write
   fun:Curl_http_readwrite_headers
   fun:readwrite_data
   fun:Curl_readwrite
   fun:multi_runsingle
   fun:curl_multi_perform
   fun:easy_transfer
}
{
   <insert_a_suppression_name_here>
   Memcheck:Cond
   fun:iswspace
   fun:_ZNK7Stroika10Foundation10Characters9Character12IsWhitespaceEv
   fun:_ZZNK7Stroika10Foundation10Characters6String4TrimEPFbNS1_9CharacterEEEd_NKUlS3_E_clES3_
   fun:_ZZNK7Stroika10Foundation10Characters6String4TrimEPFbNS1_9CharacterEEEd_NUlS3_E_4_FUNES3_
   fun:_ZNK7Stroika10Foundation10Characters6String5LTrimEPFbNS1_9CharacterEE
   fun:_ZNK7Stroika10Foundation10Characters6String4TrimEPFbNS1_9CharacterEE
   fun:_ZN7Stroika10Foundation2IO7Network8Transfer18Connection_LibCurl4Rep_27ResponseHeaderWriteHandler_EPKhm
   fun:_ZN7Stroika10Foundation2IO7Network8Transfer18Connection_LibCurl4Rep_29s_ResponseHeaderWriteHandler_EPvmmS6_
   fun:Curl_client_chop_write
   fun:Curl_client_write
   fun:Curl_http_readwrite_headers
   fun:readwrite_data
}
{
   <insert_a_suppression_name_here>
   Memcheck:Value8
   fun:iswspace
   fun:_ZNK7Stroika10Foundation10Characters9Character12IsWhitespaceEv
   fun:_ZZNK7Stroika10Foundation10Characters6String4TrimEPFbNS1_9CharacterEEEd_NKUlS3_E_clES3_
   fun:_ZZNK7Stroika10Foundation10Characters6String4TrimEPFbNS1_9CharacterEEEd_NUlS3_E_4_FUNES3_
   fun:_ZNK7Stroika10Foundation10Characters6String5LTrimEPFbNS1_9CharacterEE
   fun:_ZNK7Stroika10Foundation10Characters6String4TrimEPFbNS1_9CharacterEE
   fun:_ZN7Stroika10Foundation2IO7Network8Transfer18Connection_LibCurl4Rep_27ResponseHeaderWriteHandler_EPKhm
   fun:_ZN7Stroika10Foundation2IO7Network8Transfer18Connection_LibCurl4Rep_29s_ResponseHeaderWriteHandler_EPvmmS6_
   fun:Curl_client_chop_write
   fun:Curl_client_write
   fun:Curl_http_readwrite_headers
   fun:readwrite_data
}
{
   <insert_a_suppression_name_here>
   Memcheck:Cond
   fun:_ZN12_GLOBAL__N_111Compare_CS_EPKN7Stroika10Foundation10Characters9CharacterES5_S5_S5_
   fun:_ZN7Stroika10Foundation10Characters9Character7CompareEPKS2_S4_S4_S4_NS1_14CompareOptionsE
   fun:_ZNK7Stroika10Foundation10Characters6String7CompareERKS2_NS1_14CompareOptionsE
   fun:_ZN7Stroika10Foundation6Common8Private_15Compare_Helper_INS0_10Characters6StringEEEiNSt11conditionalIXaalestT_mlLi2EstPvsrSt10is_trivialIS7_E5valueES7_RKS7_E4typeESE_PNSt9enable_ifIXsrNS1_11Has_CompareIS7_EE5valueEvE4typeE
   fun:_ZN7Stroika10Foundation6Common21ComparerWithWellOrderINS0_10Characters6StringEE7CompareERKS4_S7_
   fun:_ZNK7Stroika10Foundation10Containers3STL4lessINS0_10Characters6StringENS0_6Common21ComparerWithWellOrderIS5_EEEclERKS5_SB_
   fun:_ZNSt8_Rb_treeIN7Stroika10Foundation10Characters6StringESt4pairIKS3_S3_ESt10_Select1stIS6_ENS1_10Containers3STL4lessIS3_NS1_6Common21ComparerWithWellOrderIS3_EEEESaIS6_EE14_M_lower_boundEPSt13_Rb_tree_nodeIS6_ESK_RS5_
   fun:_ZNSt8_Rb_treeIN7Stroika10Foundation10Characters6StringESt4pairIKS3_S3_ESt10_Select1stIS6_ENS1_10Containers3STL4lessIS3_NS1_6Common21ComparerWithWellOrderIS3_EEEESaIS6_EE4findERS5_
   fun:_ZNSt3mapIN7Stroika10Foundation10Characters6StringES3_NS1_10Containers3STL4lessIS3_NS1_6Common21ComparerWithWellOrderIS3_EEEESaISt4pairIKS3_S3_EEE4findERSC_
   fun:_ZN7Stroika10Foundation10Containers8Concrete14Mapping_stdmapINS0_10Characters6StringES5_NS2_28Mapping_stdmap_DefaultTraitsIS5_S5_NS0_6Common18ComparerWithEqualsIS5_EENS7_21ComparerWithWellOrderIS5_EEEEE4Rep_3AddERKS5_SG_
   fun:_ZN7Stroika10Foundation10Containers7MappingINS0_10Characters6StringES4_NS1_21Mapping_DefaultTraitsIS4_S4_NS0_6Common18ComparerWithEqualsIS4_EEEEE3AddERKS4_SC_
   fun:_ZN7Stroika10Foundation2IO7Network8Transfer18Connection_LibCurl4Rep_27ResponseHeaderWriteHandler_EPKhm
}
{
   <insert_a_suppression_name_here>
   Memcheck:Cond
   fun:_ZN12_GLOBAL__N_111Compare_CS_EPKN7Stroika10Foundation10Characters9CharacterES5_S5_S5_
   fun:_ZN7Stroika10Foundation10Characters9Character7CompareEPKS2_S4_S4_S4_NS1_14CompareOptionsE
   fun:_ZNK7Stroika10Foundation10Characters6String7CompareERKS2_NS1_14CompareOptionsE
   fun:_ZN7Stroika10Foundation10CharactersltERKNS1_6StringES4_
   fun:_ZN7Stroika10Foundation6Common21ComparerWithWellOrderINS0_10Characters6StringEE6EqualsERKS4_S7_
   fun:_ZN7Stroika10Foundation6Common21ComparerWithWellOrderINS0_10Characters6StringEE7CompareERKS4_S7_
   fun:_ZNK7Stroika10Foundation10Containers3STL4lessINS0_10Characters6StringENS0_6Common21ComparerWithWellOrderIS5_EEEclERKS5_SB_
   fun:_ZNSt8_Rb_treeIN7Stroika10Foundation10Characters6StringESt4pairIKS3_S3_ESt10_Select1stIS6_ENS1_10Containers3STL4lessIS3_NS1_6Common21ComparerWithWellOrderIS3_EEEESaIS6_EE14_M_lower_boundEPSt13_Rb_tree_nodeIS6_ESK_RS5_
   fun:_ZNSt8_Rb_treeIN7Stroika10Foundation10Characters6StringESt4pairIKS3_S3_ESt10_Select1stIS6_ENS1_10Containers3STL4lessIS3_NS1_6Common21ComparerWithWellOrderIS3_EEEESaIS6_EE4findERS5_
   fun:_ZNSt3mapIN7Stroika10Foundation10Characters6StringES3_NS1_10Containers3STL4lessIS3_NS1_6Common21ComparerWithWellOrderIS3_EEEESaISt4pairIKS3_S3_EEE4findERSC_
   fun:_ZN7Stroika10Foundation10Containers8Concrete14Mapping_stdmapINS0_10Characters6StringES5_NS2_28Mapping_stdmap_DefaultTraitsIS5_S5_NS0_6Common18ComparerWithEqualsIS5_EENS7_21ComparerWithWellOrderIS5_EEEEE4Rep_3AddERKS5_SG_
   fun:_ZN7Stroika10Foundation10Containers7MappingINS0_10Characters6StringES4_NS1_21Mapping_DefaultTraitsIS4_S4_NS0_6Common18ComparerWithEqualsIS4_EEEEE3AddERKS4_SC_
}
{
   <insert_a_suppression_name_here>
   Memcheck:Cond
   fun:_ZN7Stroika10Foundation6Common21ComparerWithWellOrderINS0_10Characters6StringEE6EqualsERKS4_S7_
   fun:_ZN7Stroika10Foundation6Common21ComparerWithWellOrderINS0_10Characters6StringEE7CompareERKS4_S7_
   fun:_ZNK7Stroika10Foundation10Containers3STL4lessINS0_10Characters6StringENS0_6Common21ComparerWithWellOrderIS5_EEEclERKS5_SB_
   fun:_ZNSt8_Rb_treeIN7Stroika10Foundation10Characters6StringESt4pairIKS3_S3_ESt10_Select1stIS6_ENS1_10Containers3STL4lessIS3_NS1_6Common21ComparerWithWellOrderIS3_EEEESaIS6_EE14_M_lower_boundEPSt13_Rb_tree_nodeIS6_ESK_RS5_
   fun:_ZNSt8_Rb_treeIN7Stroika10Foundation10Characters6StringESt4pairIKS3_S3_ESt10_Select1stIS6_ENS1_10Containers3STL4lessIS3_NS1_6Common21ComparerWithWellOrderIS3_EEEESaIS6_EE4findERS5_
   fun:_ZNSt3mapIN7Stroika10Foundation10Characters6StringES3_NS1_10Containers3STL4lessIS3_NS1_6Common21ComparerWithWellOrderIS3_EEEESaISt4pairIKS3_S3_EEE4findERSC_
   fun:_ZN7Stroika10Foundation10Containers8Concrete14Mapping_stdmapINS0_10Characters6StringES5_NS2_28Mapping_stdmap_DefaultTraitsIS5_S5_NS0_6Common18ComparerWithEqualsIS5_EENS7_21ComparerWithWellOrderIS5_EEEEE4Rep_3AddERKS5_SG_
   fun:_ZN7Stroika10Foundation10Containers7MappingINS0_10Characters6StringES4_NS1_21Mapping_DefaultTraitsIS4_S4_NS0_6Common18ComparerWithEqualsIS4_EEEEE3AddERKS4_SC_
   fun:_ZN7Stroika10Foundation2IO7Network8Transfer18Connection_LibCurl4Rep_27ResponseHeaderWriteHandler_EPKhm
   fun:_ZN7Stroika10Foundation2IO7Network8Transfer18Connection_LibCurl4Rep_29s_ResponseHeaderWriteHandler_EPvmmS6_
   fun:Curl_client_chop_write
   fun:Curl_client_write
}
{
   <insert_a_suppression_name_here>
   Memcheck:Cond
   fun:_ZN7Stroika10Foundation6Common21ComparerWithWellOrderINS0_10Characters6StringEE6EqualsERKS4_S7_
   fun:_ZN7Stroika10Foundation6Common21ComparerWithWellOrderINS0_10Characters6StringEE7CompareERKS4_S7_
   fun:_ZNK7Stroika10Foundation10Containers3STL4lessINS0_10Characters6StringENS0_6Common21ComparerWithWellOrderIS5_EEEclERKS5_SB_
   fun:_ZNSt8_Rb_treeIN7Stroika10Foundation10Characters6StringESt4pairIKS3_S3_ESt10_Select1stIS6_ENS1_10Containers3STL4lessIS3_NS1_6Common21ComparerWithWellOrderIS3_EEEESaIS6_EE14_M_lower_boundEPSt13_Rb_tree_nodeIS6_ESK_RS5_
   fun:_ZNSt8_Rb_treeIN7Stroika10Foundation10Characters6StringESt4pairIKS3_S3_ESt10_Select1stIS6_ENS1_10Containers3STL4lessIS3_NS1_6Common21ComparerWithWellOrderIS3_EEEESaIS6_EE4findERS5_
   fun:_ZNSt3mapIN7Stroika10Foundation10Characters6StringES3_NS1_10Containers3STL4lessIS3_NS1_6Common21ComparerWithWellOrderIS3_EEEESaISt4pairIKS3_S3_EEE4findERSC_
   fun:_ZN7Stroika10Foundation10Containers8Concrete14Mapping_stdmapINS0_10Characters6StringES5_NS2_28Mapping_stdmap_DefaultTraitsIS5_S5_NS0_6Common18ComparerWithEqualsIS5_EENS7_21ComparerWithWellOrderIS5_EEEEE4Rep_3AddERKS5_SG_
   fun:_ZN7Stroika10Foundation10Containers7MappingINS0_10Characters6StringES4_NS1_21Mapping_DefaultTraitsIS4_S4_NS0_6Common18ComparerWithEqualsIS4_EEEEE3AddERKS4_SC_
   fun:_ZN7Stroika10Foundation2IO7Network8Transfer18Connection_LibCurl4Rep_27ResponseHeaderWriteHandler_EPKhm
   fun:_ZN7Stroika10Foundation2IO7Network8Transfer18Connection_LibCurl4Rep_29s_ResponseHeaderWriteHandler_EPvmmS6_
   fun:Curl_client_chop_write
   fun:Curl_client_write
}
{
   <insert_a_suppression_name_here>
   Memcheck:Cond
   fun:_ZN7Stroika10Foundation6Common21ComparerWithWellOrderINS0_10Characters6StringEE7CompareERKS4_S7_
   fun:_ZNK7Stroika10Foundation10Containers3STL4lessINS0_10Characters6StringENS0_6Common21ComparerWithWellOrderIS5_EEEclERKS5_SB_
   fun:_ZNSt8_Rb_treeIN7Stroika10Foundation10Characters6StringESt4pairIKS3_S3_ESt10_Select1stIS6_ENS1_10Containers3STL4lessIS3_NS1_6Common21ComparerWithWellOrderIS3_EEEESaIS6_EE14_M_lower_boundEPSt13_Rb_tree_nodeIS6_ESK_RS5_
   fun:_ZNSt8_Rb_treeIN7Stroika10Foundation10Characters6StringESt4pairIKS3_S3_ESt10_Select1stIS6_ENS1_10Containers3STL4lessIS3_NS1_6Common21ComparerWithWellOrderIS3_EEEESaIS6_EE4findERS5_
   fun:_ZNSt3mapIN7Stroika10Foundation10Characters6StringES3_NS1_10Containers3STL4lessIS3_NS1_6Common21ComparerWithWellOrderIS3_EEEESaISt4pairIKS3_S3_EEE4findERSC_
   fun:_ZN7Stroika10Foundation10Containers8Concrete14Mapping_stdmapINS0_10Characters6StringES5_NS2_28Mapping_stdmap_DefaultTraitsIS5_S5_NS0_6Common18ComparerWithEqualsIS5_EENS7_21ComparerWithWellOrderIS5_EEEEE4Rep_3AddERKS5_SG_
   fun:_ZN7Stroika10Foundation10Containers7MappingINS0_10Characters6StringES4_NS1_21Mapping_DefaultTraitsIS4_S4_NS0_6Common18ComparerWithEqualsIS4_EEEEE3AddERKS4_SC_
   fun:_ZN7Stroika10Foundation2IO7Network8Transfer18Connection_LibCurl4Rep_27ResponseHeaderWriteHandler_EPKhm
   fun:_ZN7Stroika10Foundation2IO7Network8Transfer18Connection_LibCurl4Rep_29s_ResponseHeaderWriteHandler_EPvmmS6_
   fun:Curl_client_chop_write
   fun:Curl_client_write
   fun:Curl_http_readwrite_headers
}
{
   <insert_a_suppression_name_here>
   Memcheck:Cond
   fun:_ZNSt8_Rb_treeIN7Stroika10Foundation10Characters6StringESt4pairIKS3_S3_ESt10_Select1stIS6_ENS1_10Containers3STL4lessIS3_NS1_6Common21ComparerWithWellOrderIS3_EEEESaIS6_EE14_M_lower_boundEPSt13_Rb_tree_nodeIS6_ESK_RS5_
   fun:_ZNSt8_Rb_treeIN7Stroika10Foundation10Characters6StringESt4pairIKS3_S3_ESt10_Select1stIS6_ENS1_10Containers3STL4lessIS3_NS1_6Common21ComparerWithWellOrderIS3_EEEESaIS6_EE4findERS5_
   fun:_ZNSt3mapIN7Stroika10Foundation10Characters6StringES3_NS1_10Containers3STL4lessIS3_NS1_6Common21ComparerWithWellOrderIS3_EEEESaISt4pairIKS3_S3_EEE4findERSC_
   fun:_ZN7Stroika10Foundation10Containers8Concrete14Mapping_stdmapINS0_10Characters6StringES5_NS2_28Mapping_stdmap_DefaultTraitsIS5_S5_NS0_6Common18ComparerWithEqualsIS5_EENS7_21ComparerWithWellOrderIS5_EEEEE4Rep_3AddERKS5_SG_
   fun:_ZN7Stroika10Foundation10Containers7MappingINS0_10Characters6StringES4_NS1_21Mapping_DefaultTraitsIS4_S4_NS0_6Common18ComparerWithEqualsIS4_EEEEE3AddERKS4_SC_
   fun:_ZN7Stroika10Foundation2IO7Network8Transfer18Connection_LibCurl4Rep_27ResponseHeaderWriteHandler_EPKhm
   fun:_ZN7Stroika10Foundation2IO7Network8Transfer18Connection_LibCurl4Rep_29s_ResponseHeaderWriteHandler_EPvmmS6_
   fun:Curl_client_chop_write
   fun:Curl_client_write
   fun:Curl_http_readwrite_headers
   fun:readwrite_data
   fun:Curl_readwrite
}
{
   <insert_a_suppression_name_here>
   Memcheck:Cond
   fun:_ZN7Stroika10Foundation6Common21ComparerWithWellOrderINS0_10Characters6StringEE6EqualsERKS4_S7_
   fun:_ZN7Stroika10Foundation6Common21ComparerWithWellOrderINS0_10Characters6StringEE7CompareERKS4_S7_
   fun:_ZNK7Stroika10Foundation10Containers3STL4lessINS0_10Characters6StringENS0_6Common21ComparerWithWellOrderIS5_EEEclERKS5_SB_
   fun:_ZNSt8_Rb_treeIN7Stroika10Foundation10Characters6StringESt4pairIKS3_S3_ESt10_Select1stIS6_ENS1_10Containers3STL4lessIS3_NS1_6Common21ComparerWithWellOrderIS3_EEEESaIS6_EE4findERS5_
   fun:_ZNSt3mapIN7Stroika10Foundation10Characters6StringES3_NS1_10Containers3STL4lessIS3_NS1_6Common21ComparerWithWellOrderIS3_EEEESaISt4pairIKS3_S3_EEE4findERSC_
   fun:_ZN7Stroika10Foundation10Containers8Concrete14Mapping_stdmapINS0_10Characters6StringES5_NS2_28Mapping_stdmap_DefaultTraitsIS5_S5_NS0_6Common18ComparerWithEqualsIS5_EENS7_21ComparerWithWellOrderIS5_EEEEE4Rep_3AddERKS5_SG_
   fun:_ZN7Stroika10Foundation10Containers7MappingINS0_10Characters6StringES4_NS1_21Mapping_DefaultTraitsIS4_S4_NS0_6Common18ComparerWithEqualsIS4_EEEEE3AddERKS4_SC_
   fun:_ZN7Stroika10Foundation2IO7Network8Transfer18Connection_LibCurl4Rep_27ResponseHeaderWriteHandler_EPKhm
   fun:_ZN7Stroika10Foundation2IO7Network8Transfer18Connection_LibCurl4Rep_29s_ResponseHeaderWriteHandler_EPvmmS6_
   fun:Curl_client_chop_write
   fun:Curl_client_write
   fun:Curl_http_readwrite_headers
}
{
   <insert_a_suppression_name_here>
   Memcheck:Cond
   fun:_ZN7Stroika10Foundation6Common21ComparerWithWellOrderINS0_10Characters6StringEE7CompareERKS4_S7_
   fun:_ZNK7Stroika10Foundation10Containers3STL4lessINS0_10Characters6StringENS0_6Common21ComparerWithWellOrderIS5_EEEclERKS5_SB_
   fun:_ZNSt8_Rb_treeIN7Stroika10Foundation10Characters6StringESt4pairIKS3_S3_ESt10_Select1stIS6_ENS1_10Containers3STL4lessIS3_NS1_6Common21ComparerWithWellOrderIS3_EEEESaIS6_EE4findERS5_
   fun:_ZNSt3mapIN7Stroika10Foundation10Characters6StringES3_NS1_10Containers3STL4lessIS3_NS1_6Common21ComparerWithWellOrderIS3_EEEESaISt4pairIKS3_S3_EEE4findERSC_
   fun:_ZN7Stroika10Foundation10Containers8Concrete14Mapping_stdmapINS0_10Characters6StringES5_NS2_28Mapping_stdmap_DefaultTraitsIS5_S5_NS0_6Common18ComparerWithEqualsIS5_EENS7_21ComparerWithWellOrderIS5_EEEEE4Rep_3AddERKS5_SG_
   fun:_ZN7Stroika10Foundation10Containers7MappingINS0_10Characters6StringES4_NS1_21Mapping_DefaultTraitsIS4_S4_NS0_6Common18ComparerWithEqualsIS4_EEEEE3AddERKS4_SC_
   fun:_ZN7Stroika10Foundation2IO7Network8Transfer18Connection_LibCurl4Rep_27ResponseHeaderWriteHandler_EPKhm
   fun:_ZN7Stroika10Foundation2IO7Network8Transfer18Connection_LibCurl4Rep_29s_ResponseHeaderWriteHandler_EPvmmS6_
   fun:Curl_client_chop_write
   fun:Curl_client_write
   fun:Curl_http_readwrite_headers
   fun:readwrite_data
}
{
   <insert_a_suppression_name_here>
   Memcheck:Cond
   fun:_ZNSt8_Rb_treeIN7Stroika10Foundation10Characters6StringESt4pairIKS3_S3_ESt10_Select1stIS6_ENS1_10Containers3STL4lessIS3_NS1_6Common21ComparerWithWellOrderIS3_EEEESaIS6_EE4findERS5_
   fun:_ZNSt3mapIN7Stroika10Foundation10Characters6StringES3_NS1_10Containers3STL4lessIS3_NS1_6Common21ComparerWithWellOrderIS3_EEEESaISt4pairIKS3_S3_EEE4findERSC_
   fun:_ZN7Stroika10Foundation10Containers8Concrete14Mapping_stdmapINS0_10Characters6StringES5_NS2_28Mapping_stdmap_DefaultTraitsIS5_S5_NS0_6Common18ComparerWithEqualsIS5_EENS7_21ComparerWithWellOrderIS5_EEEEE4Rep_3AddERKS5_SG_
   fun:_ZN7Stroika10Foundation10Containers7MappingINS0_10Characters6StringES4_NS1_21Mapping_DefaultTraitsIS4_S4_NS0_6Common18ComparerWithEqualsIS4_EEEEE3AddERKS4_SC_
   fun:_ZN7Stroika10Foundation2IO7Network8Transfer18Connection_LibCurl4Rep_27ResponseHeaderWriteHandler_EPKhm
   fun:_ZN7Stroika10Foundation2IO7Network8Transfer18Connection_LibCurl4Rep_29s_ResponseHeaderWriteHandler_EPvmmS6_
   fun:Curl_client_chop_write
   fun:Curl_client_write
   fun:Curl_http_readwrite_headers
   fun:readwrite_data
   fun:Curl_readwrite
   fun:multi_runsingle
}
{
   <insert_a_suppression_name_here>
   Memcheck:Cond
   fun:_ZN7Stroika10Foundation6Common21ComparerWithWellOrderINS0_10Characters6StringEE6EqualsERKS4_S7_
   fun:_ZN7Stroika10Foundation6Common21ComparerWithWellOrderINS0_10Characters6StringEE7CompareERKS4_S7_
   fun:_ZNK7Stroika10Foundation10Containers3STL4lessINS0_10Characters6StringENS0_6Common21ComparerWithWellOrderIS5_EEEclERKS5_SB_
   fun:_ZNSt8_Rb_treeIN7Stroika10Foundation10Characters6StringESt4pairIKS3_S3_ESt10_Select1stIS6_ENS1_10Containers3STL4lessIS3_NS1_6Common21ComparerWithWellOrderIS3_EEEESaIS6_EE24_M_get_insert_unique_posERS5_
   fun:_ZNSt8_Rb_treeIN7Stroika10Foundation10Characters6StringESt4pairIKS3_S3_ESt10_Select1stIS6_ENS1_10Containers3STL4lessIS3_NS1_6Common21ComparerWithWellOrderIS3_EEEESaIS6_EE16_M_insert_uniqueIS4_IS3_S3_EEES4_ISt17_Rb_tree_iteratorIS6_EbEOT_
   fun:_ZNSt3mapIN7Stroika10Foundation10Characters6StringES3_NS1_10Containers3STL4lessIS3_NS1_6Common21ComparerWithWellOrderIS3_EEEESaISt4pairIKS3_S3_EEE6insertISB_IS3_S3_EvEESB_ISt17_Rb_tree_iteratorISD_EbEOT_
   fun:_ZN7Stroika10Foundation10Containers8Concrete14Mapping_stdmapINS0_10Characters6StringES5_NS2_28Mapping_stdmap_DefaultTraitsIS5_S5_NS0_6Common18ComparerWithEqualsIS5_EENS7_21ComparerWithWellOrderIS5_EEEEE4Rep_3AddERKS5_SG_
   fun:_ZN7Stroika10Foundation10Containers7MappingINS0_10Characters6StringES4_NS1_21Mapping_DefaultTraitsIS4_S4_NS0_6Common18ComparerWithEqualsIS4_EEEEE3AddERKS4_SC_
   fun:_ZN7Stroika10Foundation2IO7Network8Transfer18Connection_LibCurl4Rep_27ResponseHeaderWriteHandler_EPKhm
   fun:_ZN7Stroika10Foundation2IO7Network8Transfer18Connection_LibCurl4Rep_29s_ResponseHeaderWriteHandler_EPvmmS6_
   fun:Curl_client_chop_write
   fun:Curl_client_write
}
{
   <insert_a_suppression_name_here>
   Memcheck:Cond
   fun:_ZN7Stroika10Foundation6Common21ComparerWithWellOrderINS0_10Characters6StringEE7CompareERKS4_S7_
   fun:_ZNK7Stroika10Foundation10Containers3STL4lessINS0_10Characters6StringENS0_6Common21ComparerWithWellOrderIS5_EEEclERKS5_SB_
   fun:_ZNSt8_Rb_treeIN7Stroika10Foundation10Characters6StringESt4pairIKS3_S3_ESt10_Select1stIS6_ENS1_10Containers3STL4lessIS3_NS1_6Common21ComparerWithWellOrderIS3_EEEESaIS6_EE24_M_get_insert_unique_posERS5_
   fun:_ZNSt8_Rb_treeIN7Stroika10Foundation10Characters6StringESt4pairIKS3_S3_ESt10_Select1stIS6_ENS1_10Containers3STL4lessIS3_NS1_6Common21ComparerWithWellOrderIS3_EEEESaIS6_EE16_M_insert_uniqueIS4_IS3_S3_EEES4_ISt17_Rb_tree_iteratorIS6_EbEOT_
   fun:_ZNSt3mapIN7Stroika10Foundation10Characters6StringES3_NS1_10Containers3STL4lessIS3_NS1_6Common21ComparerWithWellOrderIS3_EEEESaISt4pairIKS3_S3_EEE6insertISB_IS3_S3_EvEESB_ISt17_Rb_tree_iteratorISD_EbEOT_
   fun:_ZN7Stroika10Foundation10Containers8Concrete14Mapping_stdmapINS0_10Characters6StringES5_NS2_28Mapping_stdmap_DefaultTraitsIS5_S5_NS0_6Common18ComparerWithEqualsIS5_EENS7_21ComparerWithWellOrderIS5_EEEEE4Rep_3AddERKS5_SG_
   fun:_ZN7Stroika10Foundation10Containers7MappingINS0_10Characters6StringES4_NS1_21Mapping_DefaultTraitsIS4_S4_NS0_6Common18ComparerWithEqualsIS4_EEEEE3AddERKS4_SC_
   fun:_ZN7Stroika10Foundation2IO7Network8Transfer18Connection_LibCurl4Rep_27ResponseHeaderWriteHandler_EPKhm
   fun:_ZN7Stroika10Foundation2IO7Network8Transfer18Connection_LibCurl4Rep_29s_ResponseHeaderWriteHandler_EPvmmS6_
   fun:Curl_client_chop_write
   fun:Curl_client_write
   fun:Curl_http_readwrite_headers
}
{
   <insert_a_suppression_name_here>
   Memcheck:Cond
   fun:_ZNSt8_Rb_treeIN7Stroika10Foundation10Characters6StringESt4pairIKS3_S3_ESt10_Select1stIS6_ENS1_10Containers3STL4lessIS3_NS1_6Common21ComparerWithWellOrderIS3_EEEESaIS6_EE24_M_get_insert_unique_posERS5_
   fun:_ZNSt8_Rb_treeIN7Stroika10Foundation10Characters6StringESt4pairIKS3_S3_ESt10_Select1stIS6_ENS1_10Containers3STL4lessIS3_NS1_6Common21ComparerWithWellOrderIS3_EEEESaIS6_EE16_M_insert_uniqueIS4_IS3_S3_EEES4_ISt17_Rb_tree_iteratorIS6_EbEOT_
   fun:_ZNSt3mapIN7Stroika10Foundation10Characters6StringES3_NS1_10Containers3STL4lessIS3_NS1_6Common21ComparerWithWellOrderIS3_EEEESaISt4pairIKS3_S3_EEE6insertISB_IS3_S3_EvEESB_ISt17_Rb_tree_iteratorISD_EbEOT_
   fun:_ZN7Stroika10Foundation10Containers8Concrete14Mapping_stdmapINS0_10Characters6StringES5_NS2_28Mapping_stdmap_DefaultTraitsIS5_S5_NS0_6Common18ComparerWithEqualsIS5_EENS7_21ComparerWithWellOrderIS5_EEEEE4Rep_3AddERKS5_SG_
   fun:_ZN7Stroika10Foundation10Containers7MappingINS0_10Characters6StringES4_NS1_21Mapping_DefaultTraitsIS4_S4_NS0_6Common18ComparerWithEqualsIS4_EEEEE3AddERKS4_SC_
   fun:_ZN7Stroika10Foundation2IO7Network8Transfer18Connection_LibCurl4Rep_27ResponseHeaderWriteHandler_EPKhm
   fun:_ZN7Stroika10Foundation2IO7Network8Transfer18Connection_LibCurl4Rep_29s_ResponseHeaderWriteHandler_EPvmmS6_
   fun:Curl_client_chop_write
   fun:Curl_client_write
   fun:Curl_http_readwrite_headers
   fun:readwrite_data
   fun:Curl_readwrite
}
{
   <insert_a_suppression_name_here>
   Memcheck:Cond
   fun:_ZNSt8_Rb_treeIN7Stroika10Foundation10Characters6StringESt4pairIKS3_S3_ESt10_Select1stIS6_ENS1_10Containers3STL4lessIS3_NS1_6Common21ComparerWithWellOrderIS3_EEEESaIS6_EE24_M_get_insert_unique_posERS5_
   fun:_ZNSt8_Rb_treeIN7Stroika10Foundation10Characters6StringESt4pairIKS3_S3_ESt10_Select1stIS6_ENS1_10Containers3STL4lessIS3_NS1_6Common21ComparerWithWellOrderIS3_EEEESaIS6_EE16_M_insert_uniqueIS4_IS3_S3_EEES4_ISt17_Rb_tree_iteratorIS6_EbEOT_
   fun:_ZNSt3mapIN7Stroika10Foundation10Characters6StringES3_NS1_10Containers3STL4lessIS3_NS1_6Common21ComparerWithWellOrderIS3_EEEESaISt4pairIKS3_S3_EEE6insertISB_IS3_S3_EvEESB_ISt17_Rb_tree_iteratorISD_EbEOT_
   fun:_ZN7Stroika10Foundation10Containers8Concrete14Mapping_stdmapINS0_10Characters6StringES5_NS2_28Mapping_stdmap_DefaultTraitsIS5_S5_NS0_6Common18ComparerWithEqualsIS5_EENS7_21ComparerWithWellOrderIS5_EEEEE4Rep_3AddERKS5_SG_
   fun:_ZN7Stroika10Foundation10Containers7MappingINS0_10Characters6StringES4_NS1_21Mapping_DefaultTraitsIS4_S4_NS0_6Common18ComparerWithEqualsIS4_EEEEE3AddERKS4_SC_
   fun:_ZN7Stroika10Foundation2IO7Network8Transfer18Connection_LibCurl4Rep_27ResponseHeaderWriteHandler_EPKhm
   fun:_ZN7Stroika10Foundation2IO7Network8Transfer18Connection_LibCurl4Rep_29s_ResponseHeaderWriteHandler_EPvmmS6_
   fun:Curl_client_chop_write
   fun:Curl_client_write
   fun:Curl_http_readwrite_headers
   fun:readwrite_data
   fun:Curl_readwrite
}
{
   <insert_a_suppression_name_here>
   Memcheck:Cond
   fun:_ZN7Stroika10Foundation6Common21ComparerWithWellOrderINS0_10Characters6StringEE6EqualsERKS4_S7_
   fun:_ZN7Stroika10Foundation6Common21ComparerWithWellOrderINS0_10Characters6StringEE7CompareERKS4_S7_
   fun:_ZNK7Stroika10Foundation10Containers3STL4lessINS0_10Characters6StringENS0_6Common21ComparerWithWellOrderIS5_EEEclERKS5_SB_
   fun:_ZNSt8_Rb_treeIN7Stroika10Foundation10Characters6StringESt4pairIKS3_S3_ESt10_Select1stIS6_ENS1_10Containers3STL4lessIS3_NS1_6Common21ComparerWithWellOrderIS3_EEEESaIS6_EE10_M_insert_IS4_IS3_S3_EEESt17_Rb_tree_iteratorIS6_EPSt18_Rb_tree_node_baseSN_OT_
   fun:_ZNSt8_Rb_treeIN7Stroika10Foundation10Characters6StringESt4pairIKS3_S3_ESt10_Select1stIS6_ENS1_10Containers3STL4lessIS3_NS1_6Common21ComparerWithWellOrderIS3_EEEESaIS6_EE16_M_insert_uniqueIS4_IS3_S3_EEES4_ISt17_Rb_tree_iteratorIS6_EbEOT_
   fun:_ZNSt3mapIN7Stroika10Foundation10Characters6StringES3_NS1_10Containers3STL4lessIS3_NS1_6Common21ComparerWithWellOrderIS3_EEEESaISt4pairIKS3_S3_EEE6insertISB_IS3_S3_EvEESB_ISt17_Rb_tree_iteratorISD_EbEOT_
   fun:_ZN7Stroika10Foundation10Containers8Concrete14Mapping_stdmapINS0_10Characters6StringES5_NS2_28Mapping_stdmap_DefaultTraitsIS5_S5_NS0_6Common18ComparerWithEqualsIS5_EENS7_21ComparerWithWellOrderIS5_EEEEE4Rep_3AddERKS5_SG_
   fun:_ZN7Stroika10Foundation10Containers7MappingINS0_10Characters6StringES4_NS1_21Mapping_DefaultTraitsIS4_S4_NS0_6Common18ComparerWithEqualsIS4_EEEEE3AddERKS4_SC_
   fun:_ZN7Stroika10Foundation2IO7Network8Transfer18Connection_LibCurl4Rep_27ResponseHeaderWriteHandler_EPKhm
   fun:_ZN7Stroika10Foundation2IO7Network8Transfer18Connection_LibCurl4Rep_29s_ResponseHeaderWriteHandler_EPvmmS6_
   fun:Curl_client_chop_write
   fun:Curl_client_write
}
{
   <insert_a_suppression_name_here>
   Memcheck:Cond
   fun:_ZN7Stroika10Foundation6Common21ComparerWithWellOrderINS0_10Characters6StringEE7CompareERKS4_S7_
   fun:_ZNK7Stroika10Foundation10Containers3STL4lessINS0_10Characters6StringENS0_6Common21ComparerWithWellOrderIS5_EEEclERKS5_SB_
   fun:_ZNSt8_Rb_treeIN7Stroika10Foundation10Characters6StringESt4pairIKS3_S3_ESt10_Select1stIS6_ENS1_10Containers3STL4lessIS3_NS1_6Common21ComparerWithWellOrderIS3_EEEESaIS6_EE10_M_insert_IS4_IS3_S3_EEESt17_Rb_tree_iteratorIS6_EPSt18_Rb_tree_node_baseSN_OT_
   fun:_ZNSt8_Rb_treeIN7Stroika10Foundation10Characters6StringESt4pairIKS3_S3_ESt10_Select1stIS6_ENS1_10Containers3STL4lessIS3_NS1_6Common21ComparerWithWellOrderIS3_EEEESaIS6_EE16_M_insert_uniqueIS4_IS3_S3_EEES4_ISt17_Rb_tree_iteratorIS6_EbEOT_
   fun:_ZNSt3mapIN7Stroika10Foundation10Characters6StringES3_NS1_10Containers3STL4lessIS3_NS1_6Common21ComparerWithWellOrderIS3_EEEESaISt4pairIKS3_S3_EEE6insertISB_IS3_S3_EvEESB_ISt17_Rb_tree_iteratorISD_EbEOT_
   fun:_ZN7Stroika10Foundation10Containers8Concrete14Mapping_stdmapINS0_10Characters6StringES5_NS2_28Mapping_stdmap_DefaultTraitsIS5_S5_NS0_6Common18ComparerWithEqualsIS5_EENS7_21ComparerWithWellOrderIS5_EEEEE4Rep_3AddERKS5_SG_
   fun:_ZN7Stroika10Foundation10Containers7MappingINS0_10Characters6StringES4_NS1_21Mapping_DefaultTraitsIS4_S4_NS0_6Common18ComparerWithEqualsIS4_EEEEE3AddERKS4_SC_
   fun:_ZN7Stroika10Foundation2IO7Network8Transfer18Connection_LibCurl4Rep_27ResponseHeaderWriteHandler_EPKhm
   fun:_ZN7Stroika10Foundation2IO7Network8Transfer18Connection_LibCurl4Rep_29s_ResponseHeaderWriteHandler_EPvmmS6_
   fun:Curl_client_chop_write
   fun:Curl_client_write
   fun:Curl_http_readwrite_headers
}
{
   <insert_a_suppression_name_here>
   Memcheck:Cond
   fun:_ZNSt8_Rb_treeIN7Stroika10Foundation10Characters6StringESt4pairIKS3_S3_ESt10_Select1stIS6_ENS1_10Containers3STL4lessIS3_NS1_6Common21ComparerWithWellOrderIS3_EEEESaIS6_EE10_M_insert_IS4_IS3_S3_EEESt17_Rb_tree_iteratorIS6_EPSt18_Rb_tree_node_baseSN_OT_
   fun:_ZNSt8_Rb_treeIN7Stroika10Foundation10Characters6StringESt4pairIKS3_S3_ESt10_Select1stIS6_ENS1_10Containers3STL4lessIS3_NS1_6Common21ComparerWithWellOrderIS3_EEEESaIS6_EE16_M_insert_uniqueIS4_IS3_S3_EEES4_ISt17_Rb_tree_iteratorIS6_EbEOT_
   fun:_ZNSt3mapIN7Stroika10Foundation10Characters6StringES3_NS1_10Containers3STL4lessIS3_NS1_6Common21ComparerWithWellOrderIS3_EEEESaISt4pairIKS3_S3_EEE6insertISB_IS3_S3_EvEESB_ISt17_Rb_tree_iteratorISD_EbEOT_
   fun:_ZN7Stroika10Foundation10Containers8Concrete14Mapping_stdmapINS0_10Characters6StringES5_NS2_28Mapping_stdmap_DefaultTraitsIS5_S5_NS0_6Common18ComparerWithEqualsIS5_EENS7_21ComparerWithWellOrderIS5_EEEEE4Rep_3AddERKS5_SG_
   fun:_ZN7Stroika10Foundation10Containers7MappingINS0_10Characters6StringES4_NS1_21Mapping_DefaultTraitsIS4_S4_NS0_6Common18ComparerWithEqualsIS4_EEEEE3AddERKS4_SC_
   fun:_ZN7Stroika10Foundation2IO7Network8Transfer18Connection_LibCurl4Rep_27ResponseHeaderWriteHandler_EPKhm
   fun:_ZN7Stroika10Foundation2IO7Network8Transfer18Connection_LibCurl4Rep_29s_ResponseHeaderWriteHandler_EPvmmS6_
   fun:Curl_client_chop_write
   fun:Curl_client_write
   fun:Curl_http_readwrite_headers
   fun:readwrite_data
   fun:Curl_readwrite
}
{
   <insert_a_suppression_name_here>
   Memcheck:Cond
   fun:_ZN7Stroika10Foundation6Common21ComparerWithWellOrderINS0_10Characters6StringEE6EqualsERKS4_S7_
   fun:_ZN7Stroika10Foundation6Common21ComparerWithWellOrderINS0_10Characters6StringEE7CompareERKS4_S7_
   fun:_ZNK7Stroika10Foundation10Containers3STL4lessINS0_10Characters6StringENS0_6Common21ComparerWithWellOrderIS5_EEEclERKS5_SB_
   fun:_ZNSt8_Rb_treeIN7Stroika10Foundation10Characters6StringESt4pairIKS3_S3_ESt10_Select1stIS6_ENS1_10Containers3STL4lessIS3_NS1_6Common21ComparerWithWellOrderIS3_EEEESaIS6_EE24_M_get_insert_unique_posERS5_
   fun:_ZNSt8_Rb_treeIN7Stroika10Foundation10Characters6StringESt4pairIKS3_S3_ESt10_Select1stIS6_ENS1_10Containers3STL4lessIS3_NS1_6Common21ComparerWithWellOrderIS3_EEEESaIS6_EE16_M_insert_uniqueIS4_IS3_S3_EEES4_ISt17_Rb_tree_iteratorIS6_EbEOT_
   fun:_ZNSt3mapIN7Stroika10Foundation10Characters6StringES3_NS1_10Containers3STL4lessIS3_NS1_6Common21ComparerWithWellOrderIS3_EEEESaISt4pairIKS3_S3_EEE6insertISB_IS3_S3_EvEESB_ISt17_Rb_tree_iteratorISD_EbEOT_
   fun:_ZN7Stroika10Foundation10Containers8Concrete14Mapping_stdmapINS0_10Characters6StringES5_NS2_28Mapping_stdmap_DefaultTraitsIS5_S5_NS0_6Common18ComparerWithEqualsIS5_EENS7_21ComparerWithWellOrderIS5_EEEEE4Rep_3AddERKS5_SG_
   fun:_ZN7Stroika10Foundation10Containers7MappingINS0_10Characters6StringES4_NS1_21Mapping_DefaultTraitsIS4_S4_NS0_6Common18ComparerWithEqualsIS4_EEEEE3AddERKS4_SC_
   fun:_ZN7Stroika10Foundation2IO7Network8Transfer18Connection_LibCurl4Rep_27ResponseHeaderWriteHandler_EPKhm
   fun:_ZN7Stroika10Foundation2IO7Network8Transfer18Connection_LibCurl4Rep_29s_ResponseHeaderWriteHandler_EPvmmS6_
   fun:Curl_client_chop_write
   fun:Curl_client_write
}
{
   <insert_a_suppression_name_here>
   Memcheck:Cond
   fun:_ZN7Stroika10Foundation6Common21ComparerWithWellOrderINS0_10Characters6StringEE6EqualsERKS4_S7_
   fun:_ZN7Stroika10Foundation6Common21ComparerWithWellOrderINS0_10Characters6StringEE7CompareERKS4_S7_
   fun:_ZNK7Stroika10Foundation10Containers3STL4lessINS0_10Characters6StringENS0_6Common21ComparerWithWellOrderIS5_EEEclERKS5_SB_
   fun:_ZNSt8_Rb_treeIN7Stroika10Foundation10Characters6StringESt4pairIKS3_S3_ESt10_Select1stIS6_ENS1_10Containers3STL4lessIS3_NS1_6Common21ComparerWithWellOrderIS3_EEEESaIS6_EE24_M_get_insert_unique_posERS5_
   fun:_ZNSt8_Rb_treeIN7Stroika10Foundation10Characters6StringESt4pairIKS3_S3_ESt10_Select1stIS6_ENS1_10Containers3STL4lessIS3_NS1_6Common21ComparerWithWellOrderIS3_EEEESaIS6_EE16_M_insert_uniqueIS4_IS3_S3_EEES4_ISt17_Rb_tree_iteratorIS6_EbEOT_
   fun:_ZNSt3mapIN7Stroika10Foundation10Characters6StringES3_NS1_10Containers3STL4lessIS3_NS1_6Common21ComparerWithWellOrderIS3_EEEESaISt4pairIKS3_S3_EEE6insertISB_IS3_S3_EvEESB_ISt17_Rb_tree_iteratorISD_EbEOT_
   fun:_ZN7Stroika10Foundation10Containers8Concrete14Mapping_stdmapINS0_10Characters6StringES5_NS2_28Mapping_stdmap_DefaultTraitsIS5_S5_NS0_6Common18ComparerWithEqualsIS5_EENS7_21ComparerWithWellOrderIS5_EEEEE4Rep_3AddERKS5_SG_
   fun:_ZN7Stroika10Foundation10Containers7MappingINS0_10Characters6StringES4_NS1_21Mapping_DefaultTraitsIS4_S4_NS0_6Common18ComparerWithEqualsIS4_EEEEE3AddERKS4_SC_
   fun:_ZN7Stroika10Foundation2IO7Network8Transfer18Connection_LibCurl4Rep_27ResponseHeaderWriteHandler_EPKhm
   fun:_ZN7Stroika10Foundation2IO7Network8Transfer18Connection_LibCurl4Rep_29s_ResponseHeaderWriteHandler_EPvmmS6_
   fun:Curl_client_chop_write
   fun:Curl_client_write
}
{
   <insert_a_suppression_name_here>
   Memcheck:Cond
   fun:_ZN7Stroika10Foundation6Common21ComparerWithWellOrderINS0_10Characters6StringEE7CompareERKS4_S7_
   fun:_ZNK7Stroika10Foundation10Containers3STL4lessINS0_10Characters6StringENS0_6Common21ComparerWithWellOrderIS5_EEEclERKS5_SB_
   fun:_ZNSt8_Rb_treeIN7Stroika10Foundation10Characters6StringESt4pairIKS3_S3_ESt10_Select1stIS6_ENS1_10Containers3STL4lessIS3_NS1_6Common21ComparerWithWellOrderIS3_EEEESaIS6_EE24_M_get_insert_unique_posERS5_
   fun:_ZNSt8_Rb_treeIN7Stroika10Foundation10Characters6StringESt4pairIKS3_S3_ESt10_Select1stIS6_ENS1_10Containers3STL4lessIS3_NS1_6Common21ComparerWithWellOrderIS3_EEEESaIS6_EE16_M_insert_uniqueIS4_IS3_S3_EEES4_ISt17_Rb_tree_iteratorIS6_EbEOT_
   fun:_ZNSt3mapIN7Stroika10Foundation10Characters6StringES3_NS1_10Containers3STL4lessIS3_NS1_6Common21ComparerWithWellOrderIS3_EEEESaISt4pairIKS3_S3_EEE6insertISB_IS3_S3_EvEESB_ISt17_Rb_tree_iteratorISD_EbEOT_
   fun:_ZN7Stroika10Foundation10Containers8Concrete14Mapping_stdmapINS0_10Characters6StringES5_NS2_28Mapping_stdmap_DefaultTraitsIS5_S5_NS0_6Common18ComparerWithEqualsIS5_EENS7_21ComparerWithWellOrderIS5_EEEEE4Rep_3AddERKS5_SG_
   fun:_ZN7Stroika10Foundation10Containers7MappingINS0_10Characters6StringES4_NS1_21Mapping_DefaultTraitsIS4_S4_NS0_6Common18ComparerWithEqualsIS4_EEEEE3AddERKS4_SC_
   fun:_ZN7Stroika10Foundation2IO7Network8Transfer18Connection_LibCurl4Rep_27ResponseHeaderWriteHandler_EPKhm
   fun:_ZN7Stroika10Foundation2IO7Network8Transfer18Connection_LibCurl4Rep_29s_ResponseHeaderWriteHandler_EPvmmS6_
   fun:Curl_client_chop_write
   fun:Curl_client_write
   fun:Curl_http_readwrite_headers
}
{
   <insert_a_suppression_name_here>
   Memcheck:Cond
   fun:_ZNSt8_Rb_treeIN7Stroika10Foundation10Characters6StringESt4pairIKS3_S3_ESt10_Select1stIS6_ENS1_10Containers3STL4lessIS3_NS1_6Common21ComparerWithWellOrderIS3_EEEESaIS6_EE24_M_get_insert_unique_posERS5_
   fun:_ZNSt8_Rb_treeIN7Stroika10Foundation10Characters6StringESt4pairIKS3_S3_ESt10_Select1stIS6_ENS1_10Containers3STL4lessIS3_NS1_6Common21ComparerWithWellOrderIS3_EEEESaIS6_EE16_M_insert_uniqueIS4_IS3_S3_EEES4_ISt17_Rb_tree_iteratorIS6_EbEOT_
   fun:_ZNSt3mapIN7Stroika10Foundation10Characters6StringES3_NS1_10Containers3STL4lessIS3_NS1_6Common21ComparerWithWellOrderIS3_EEEESaISt4pairIKS3_S3_EEE6insertISB_IS3_S3_EvEESB_ISt17_Rb_tree_iteratorISD_EbEOT_
   fun:_ZN7Stroika10Foundation10Containers8Concrete14Mapping_stdmapINS0_10Characters6StringES5_NS2_28Mapping_stdmap_DefaultTraitsIS5_S5_NS0_6Common18ComparerWithEqualsIS5_EENS7_21ComparerWithWellOrderIS5_EEEEE4Rep_3AddERKS5_SG_
   fun:_ZN7Stroika10Foundation10Containers7MappingINS0_10Characters6StringES4_NS1_21Mapping_DefaultTraitsIS4_S4_NS0_6Common18ComparerWithEqualsIS4_EEEEE3AddERKS4_SC_
   fun:_ZN7Stroika10Foundation2IO7Network8Transfer18Connection_LibCurl4Rep_27ResponseHeaderWriteHandler_EPKhm
   fun:_ZN7Stroika10Foundation2IO7Network8Transfer18Connection_LibCurl4Rep_29s_ResponseHeaderWriteHandler_EPvmmS6_
   fun:Curl_client_chop_write
   fun:Curl_client_write
   fun:Curl_http_readwrite_headers
   fun:readwrite_data
   fun:Curl_readwrite
}
{
   <insert_a_suppression_name_here>
   Memcheck:Cond
   fun:_ZN7Stroika10Foundation6Common21ComparerWithWellOrderINS0_10Characters6StringEE6EqualsERKS4_S7_
   fun:_ZN7Stroika10Foundation6Common21ComparerWithWellOrderINS0_10Characters6StringEE7CompareERKS4_S7_
   fun:_ZNK7Stroika10Foundation10Containers3STL4lessINS0_10Characters6StringENS0_6Common21ComparerWithWellOrderIS5_EEEclERKS5_SB_
   fun:_ZNSt8_Rb_treeIN7Stroika10Foundation10Characters6StringESt4pairIKS3_S3_ESt10_Select1stIS6_ENS1_10Containers3STL4lessIS3_NS1_6Common21ComparerWithWellOrderIS3_EEEESaIS6_EE10_M_insert_IS4_IS3_S3_EEESt17_Rb_tree_iteratorIS6_EPSt18_Rb_tree_node_baseSN_OT_
   fun:_ZNSt8_Rb_treeIN7Stroika10Foundation10Characters6StringESt4pairIKS3_S3_ESt10_Select1stIS6_ENS1_10Containers3STL4lessIS3_NS1_6Common21ComparerWithWellOrderIS3_EEEESaIS6_EE16_M_insert_uniqueIS4_IS3_S3_EEES4_ISt17_Rb_tree_iteratorIS6_EbEOT_
   fun:_ZNSt3mapIN7Stroika10Foundation10Characters6StringES3_NS1_10Containers3STL4lessIS3_NS1_6Common21ComparerWithWellOrderIS3_EEEESaISt4pairIKS3_S3_EEE6insertISB_IS3_S3_EvEESB_ISt17_Rb_tree_iteratorISD_EbEOT_
   fun:_ZN7Stroika10Foundation10Containers8Concrete14Mapping_stdmapINS0_10Characters6StringES5_NS2_28Mapping_stdmap_DefaultTraitsIS5_S5_NS0_6Common18ComparerWithEqualsIS5_EENS7_21ComparerWithWellOrderIS5_EEEEE4Rep_3AddERKS5_SG_
   fun:_ZN7Stroika10Foundation10Containers7MappingINS0_10Characters6StringES4_NS1_21Mapping_DefaultTraitsIS4_S4_NS0_6Common18ComparerWithEqualsIS4_EEEEE3AddERKS4_SC_
   fun:_ZN7Stroika10Foundation2IO7Network8Transfer18Connection_LibCurl4Rep_27ResponseHeaderWriteHandler_EPKhm
   fun:_ZN7Stroika10Foundation2IO7Network8Transfer18Connection_LibCurl4Rep_29s_ResponseHeaderWriteHandler_EPvmmS6_
   fun:Curl_client_chop_write
   fun:Curl_client_write
}
{
   <insert_a_suppression_name_here>
   Memcheck:Value8
   fun:Curl_raw_toupper
   fun:Curl_raw_nequal
   fun:Curl_compareheader
   fun:Curl_http_readwrite_headers
   fun:readwrite_data
   fun:Curl_readwrite
   fun:multi_runsingle
   fun:curl_multi_perform
   fun:easy_transfer
   fun:easy_perform
   fun:curl_easy_perform
   fun:_ZN7Stroika10Foundation2IO7Network8Transfer18Connection_LibCurl4Rep_4SendERKNS3_7RequestE
}
{
   <insert_a_suppression_name_here>
   Memcheck:Value8
   fun:Curl_raw_toupper
   fun:Curl_raw_nequal
   fun:Curl_compareheader
   fun:Curl_http_readwrite_headers
   fun:readwrite_data
   fun:Curl_readwrite
   fun:multi_runsingle
   fun:curl_multi_perform
   fun:easy_transfer
   fun:easy_perform
   fun:curl_easy_perform
   fun:_ZN7Stroika10Foundation2IO7Network8Transfer18Connection_LibCurl4Rep_4SendERKNS3_7RequestE
}
{
   <insert_a_suppression_name_here>
   Memcheck:Value8
   fun:_IO_vfscanf
   fun:__isoc99_vsscanf
   fun:__isoc99_sscanf
   fun:Curl_cookie_add
   fun:Curl_http_readwrite_headers
   fun:readwrite_data
   fun:Curl_readwrite
   fun:multi_runsingle
   fun:curl_multi_perform
   fun:easy_transfer
   fun:easy_perform
   fun:curl_easy_perform
}
{
   <insert_a_suppression_name_here>
   Memcheck:Value8
   fun:_IO_vfscanf
   fun:__isoc99_vsscanf
   fun:__isoc99_sscanf
   fun:Curl_cookie_add
   fun:Curl_http_readwrite_headers
   fun:readwrite_data
   fun:Curl_readwrite
   fun:multi_runsingle
   fun:curl_multi_perform
   fun:easy_transfer
   fun:easy_perform
   fun:curl_easy_perform
}
{
   <insert_a_suppression_name_here>
   Memcheck:Value8
   fun:Curl_raw_toupper
   fun:Curl_raw_equal
   fun:Curl_cookie_add
   fun:Curl_http_readwrite_headers
   fun:readwrite_data
   fun:Curl_readwrite
   fun:multi_runsingle
   fun:curl_multi_perform
   fun:easy_transfer
   fun:easy_perform
   fun:curl_easy_perform
   fun:_ZN7Stroika10Foundation2IO7Network8Transfer18Connection_LibCurl4Rep_4SendERKNS3_7RequestE
}
{
   <insert_a_suppression_name_here>
   Memcheck:Value8
   fun:Curl_raw_toupper
   fun:Curl_raw_equal
   fun:Curl_cookie_add
   fun:Curl_http_readwrite_headers
   fun:readwrite_data
   fun:Curl_readwrite
   fun:multi_runsingle
   fun:curl_multi_perform
   fun:easy_transfer
   fun:easy_perform
   fun:curl_easy_perform
   fun:_ZN7Stroika10Foundation2IO7Network8Transfer18Connection_LibCurl4Rep_4SendERKNS3_7RequestE
}
{
   <insert_a_suppression_name_here>
   Memcheck:Value8
   fun:Curl_raw_toupper
   fun:Curl_raw_equal
   fun:Curl_cookie_add
   fun:Curl_http_readwrite_headers
   fun:readwrite_data
   fun:Curl_readwrite
   fun:multi_runsingle
   fun:curl_multi_perform
   fun:easy_transfer
   fun:easy_perform
   fun:curl_easy_perform
   fun:_ZN7Stroika10Foundation2IO7Network8Transfer18Connection_LibCurl4Rep_4SendERKNS3_7RequestE
}
{
   <insert_a_suppression_name_here>
   Memcheck:Value8
   fun:Curl_raw_toupper
   fun:Curl_raw_equal
   fun:Curl_cookie_add
   fun:Curl_http_readwrite_headers
   fun:readwrite_data
   fun:Curl_readwrite
   fun:multi_runsingle
   fun:curl_multi_perform
   fun:easy_transfer
   fun:easy_perform
   fun:curl_easy_perform
   fun:_ZN7Stroika10Foundation2IO7Network8Transfer18Connection_LibCurl4Rep_4SendERKNS3_7RequestE
}
{
   <insert_a_suppression_name_here>
   Memcheck:Value8
   fun:Curl_raw_toupper
   fun:Curl_raw_equal
   fun:Curl_cookie_add
   fun:Curl_http_readwrite_headers
   fun:readwrite_data
   fun:Curl_readwrite
   fun:multi_runsingle
   fun:curl_multi_perform
   fun:easy_transfer
   fun:easy_perform
   fun:curl_easy_perform
   fun:_ZN7Stroika10Foundation2IO7Network8Transfer18Connection_LibCurl4Rep_4SendERKNS3_7RequestE
}
{
   <insert_a_suppression_name_here>
   Memcheck:Value8
   fun:Curl_raw_toupper
   fun:Curl_raw_equal
   fun:Curl_cookie_add
   fun:Curl_http_readwrite_headers
   fun:readwrite_data
   fun:Curl_readwrite
   fun:multi_runsingle
   fun:curl_multi_perform
   fun:easy_transfer
   fun:easy_perform
   fun:curl_easy_perform
   fun:_ZN7Stroika10Foundation2IO7Network8Transfer18Connection_LibCurl4Rep_4SendERKNS3_7RequestE
}
{
   <insert_a_suppression_name_here>
   Memcheck:Value8
   fun:Curl_raw_toupper
   fun:Curl_raw_equal
   fun:Curl_cookie_add
   fun:Curl_http_readwrite_headers
   fun:readwrite_data
   fun:Curl_readwrite
   fun:multi_runsingle
   fun:curl_multi_perform
   fun:easy_transfer
   fun:easy_perform
   fun:curl_easy_perform
   fun:_ZN7Stroika10Foundation2IO7Network8Transfer18Connection_LibCurl4Rep_4SendERKNS3_7RequestE
}
{
   <insert_a_suppression_name_here>
   Memcheck:Value8
   fun:Curl_raw_toupper
   fun:Curl_raw_equal
   fun:Curl_cookie_add
   fun:Curl_http_readwrite_headers
   fun:readwrite_data
   fun:Curl_readwrite
   fun:multi_runsingle
   fun:curl_multi_perform
   fun:easy_transfer
   fun:easy_perform
   fun:curl_easy_perform
   fun:_ZN7Stroika10Foundation2IO7Network8Transfer18Connection_LibCurl4Rep_4SendERKNS3_7RequestE
}
{
   <insert_a_suppression_name_here>
   Memcheck:Value8
   fun:Curl_raw_toupper
   fun:Curl_raw_equal
   fun:Curl_cookie_add
   fun:Curl_http_readwrite_headers
   fun:readwrite_data
   fun:Curl_readwrite
   fun:multi_runsingle
   fun:curl_multi_perform
   fun:easy_transfer
   fun:easy_perform
   fun:curl_easy_perform
   fun:_ZN7Stroika10Foundation2IO7Network8Transfer18Connection_LibCurl4Rep_4SendERKNS3_7RequestE
}
{
   <insert_a_suppression_name_here>
   Memcheck:Value8
   fun:Curl_raw_toupper
   fun:Curl_raw_equal
   fun:tailmatch
   fun:Curl_cookie_add
   fun:Curl_http_readwrite_headers
   fun:readwrite_data
   fun:Curl_readwrite
   fun:multi_runsingle
   fun:curl_multi_perform
   fun:easy_transfer
   fun:easy_perform
   fun:curl_easy_perform
}
{
   <insert_a_suppression_name_here>
   Memcheck:Value8
   fun:skip
   fun:parsedate
   fun:curl_getdate
   fun:Curl_cookie_add
   fun:Curl_http_readwrite_headers
   fun:readwrite_data
   fun:Curl_readwrite
   fun:multi_runsingle
   fun:curl_multi_perform
   fun:easy_transfer
   fun:easy_perform
   fun:curl_easy_perform
}
{
   <insert_a_suppression_name_here>
   Memcheck:Value8
   fun:parsedate
   fun:curl_getdate
   fun:Curl_cookie_add
   fun:Curl_http_readwrite_headers
   fun:readwrite_data
   fun:Curl_readwrite
   fun:multi_runsingle
   fun:curl_multi_perform
   fun:easy_transfer
   fun:easy_perform
   fun:curl_easy_perform
   fun:_ZN7Stroika10Foundation2IO7Network8Transfer18Connection_LibCurl4Rep_4SendERKNS3_7RequestE
}
{
   <insert_a_suppression_name_here>
   Memcheck:Value8
   fun:_IO_vfscanf
   fun:__isoc99_vsscanf
   fun:__isoc99_sscanf
   fun:parsedate
   fun:curl_getdate
   fun:Curl_cookie_add
   fun:Curl_http_readwrite_headers
   fun:readwrite_data
   fun:Curl_readwrite
   fun:multi_runsingle
   fun:curl_multi_perform
   fun:easy_transfer
}
{
   <insert_a_suppression_name_here>
   Memcheck:Cond
   fun:Curl_raw_toupper
   fun:Curl_raw_equal
   fun:checkday
   fun:parsedate
   fun:curl_getdate
   fun:Curl_cookie_add
   fun:Curl_http_readwrite_headers
   fun:readwrite_data
   fun:Curl_readwrite
   fun:multi_runsingle
   fun:curl_multi_perform
   fun:easy_transfer
}
{
   <insert_a_suppression_name_here>
   Memcheck:Cond
   fun:Curl_raw_toupper
   fun:Curl_raw_equal
   fun:checkday
   fun:parsedate
   fun:curl_getdate
   fun:Curl_cookie_add
   fun:Curl_http_readwrite_headers
   fun:readwrite_data
   fun:Curl_readwrite
   fun:multi_runsingle
   fun:curl_multi_perform
   fun:easy_transfer
}
{
   <insert_a_suppression_name_here>
   Memcheck:Value8
   fun:Curl_raw_toupper
   fun:Curl_raw_equal
   fun:checkday
   fun:parsedate
   fun:curl_getdate
   fun:Curl_cookie_add
   fun:Curl_http_readwrite_headers
   fun:readwrite_data
   fun:Curl_readwrite
   fun:multi_runsingle
   fun:curl_multi_perform
   fun:easy_transfer
}
{
   <insert_a_suppression_name_here>
   Memcheck:Value8
   fun:Curl_raw_toupper
   fun:Curl_raw_equal
   fun:checkday
   fun:parsedate
   fun:curl_getdate
   fun:Curl_cookie_add
   fun:Curl_http_readwrite_headers
   fun:readwrite_data
   fun:Curl_readwrite
   fun:multi_runsingle
   fun:curl_multi_perform
   fun:easy_transfer
}
{
   <insert_a_suppression_name_here>
   Memcheck:Value8
   fun:parsedate
   fun:curl_getdate
   fun:Curl_cookie_add
   fun:Curl_http_readwrite_headers
   fun:readwrite_data
   fun:Curl_readwrite
   fun:multi_runsingle
   fun:curl_multi_perform
   fun:easy_transfer
   fun:easy_perform
   fun:curl_easy_perform
   fun:_ZN7Stroika10Foundation2IO7Network8Transfer18Connection_LibCurl4Rep_4SendERKNS3_7RequestE
}
{
   <insert_a_suppression_name_here>
   Memcheck:Value8
   fun:_IO_vfscanf
   fun:__isoc99_vsscanf
   fun:__isoc99_sscanf
   fun:parsedate
   fun:curl_getdate
   fun:Curl_cookie_add
   fun:Curl_http_readwrite_headers
   fun:readwrite_data
   fun:Curl_readwrite
   fun:multi_runsingle
   fun:curl_multi_perform
   fun:easy_transfer
}
{
   <insert_a_suppression_name_here>
   Memcheck:Cond
   fun:_IO_vfscanf
   fun:__isoc99_vsscanf
   fun:__isoc99_sscanf
   fun:parsedate
   fun:curl_getdate
   fun:Curl_cookie_add
   fun:Curl_http_readwrite_headers
   fun:readwrite_data
   fun:Curl_readwrite
   fun:multi_runsingle
   fun:curl_multi_perform
   fun:easy_transfer
}
{
   <insert_a_suppression_name_here>
   Memcheck:Cond
   fun:_IO_vfscanf
   fun:__isoc99_vsscanf
   fun:__isoc99_sscanf
   fun:parsedate
   fun:curl_getdate
   fun:Curl_cookie_add
   fun:Curl_http_readwrite_headers
   fun:readwrite_data
   fun:Curl_readwrite
   fun:multi_runsingle
   fun:curl_multi_perform
   fun:easy_transfer
}
{
   <insert_a_suppression_name_here>
   Memcheck:Cond
   fun:_IO_vfscanf
   fun:__isoc99_vsscanf
   fun:__isoc99_sscanf
   fun:parsedate
   fun:curl_getdate
   fun:Curl_cookie_add
   fun:Curl_http_readwrite_headers
   fun:readwrite_data
   fun:Curl_readwrite
   fun:multi_runsingle
   fun:curl_multi_perform
   fun:easy_transfer
}
{
   <insert_a_suppression_name_here>
   Memcheck:Cond
   fun:_IO_vfscanf
   fun:__isoc99_vsscanf
   fun:__isoc99_sscanf
   fun:parsedate
   fun:curl_getdate
   fun:Curl_cookie_add
   fun:Curl_http_readwrite_headers
   fun:readwrite_data
   fun:Curl_readwrite
   fun:multi_runsingle
   fun:curl_multi_perform
   fun:easy_transfer
}
{
   <insert_a_suppression_name_here>
   Memcheck:Cond
   fun:_IO_vfscanf
   fun:__isoc99_vsscanf
   fun:__isoc99_sscanf
   fun:parsedate
   fun:curl_getdate
   fun:Curl_cookie_add
   fun:Curl_http_readwrite_headers
   fun:readwrite_data
   fun:Curl_readwrite
   fun:multi_runsingle
   fun:curl_multi_perform
   fun:easy_transfer
}
{
   <insert_a_suppression_name_here>
   Memcheck:Cond
   fun:_IO_vfscanf
   fun:__isoc99_vsscanf
   fun:__isoc99_sscanf
   fun:parsedate
   fun:curl_getdate
   fun:Curl_cookie_add
   fun:Curl_http_readwrite_headers
   fun:readwrite_data
   fun:Curl_readwrite
   fun:multi_runsingle
   fun:curl_multi_perform
   fun:easy_transfer
}
{
   <insert_a_suppression_name_here>
   Memcheck:Cond
   fun:_IO_vfscanf
   fun:__isoc99_vsscanf
   fun:__isoc99_sscanf
   fun:parsedate
   fun:curl_getdate
   fun:Curl_cookie_add
   fun:Curl_http_readwrite_headers
   fun:readwrite_data
   fun:Curl_readwrite
   fun:multi_runsingle
   fun:curl_multi_perform
   fun:easy_transfer
}
{
   <insert_a_suppression_name_here>
   Memcheck:Cond
   fun:_IO_vfscanf
   fun:__isoc99_vsscanf
   fun:__isoc99_sscanf
   fun:parsedate
   fun:curl_getdate
   fun:Curl_cookie_add
   fun:Curl_http_readwrite_headers
   fun:readwrite_data
   fun:Curl_readwrite
   fun:multi_runsingle
   fun:curl_multi_perform
   fun:easy_transfer
}
{
   <insert_a_suppression_name_here>
   Memcheck:Cond
   fun:_IO_vfscanf
   fun:__isoc99_vsscanf
   fun:__isoc99_sscanf
   fun:parsedate
   fun:curl_getdate
   fun:Curl_cookie_add
   fun:Curl_http_readwrite_headers
   fun:readwrite_data
   fun:Curl_readwrite
   fun:multi_runsingle
   fun:curl_multi_perform
   fun:easy_transfer
}
{
   <insert_a_suppression_name_here>
   Memcheck:Cond
   fun:_IO_vfscanf
   fun:__isoc99_vsscanf
   fun:__isoc99_sscanf
   fun:parsedate
   fun:curl_getdate
   fun:Curl_cookie_add
   fun:Curl_http_readwrite_headers
   fun:readwrite_data
   fun:Curl_readwrite
   fun:multi_runsingle
   fun:curl_multi_perform
   fun:easy_transfer
}
{
   <insert_a_suppression_name_here>
   Memcheck:Cond
   fun:_IO_vfscanf
   fun:__isoc99_vsscanf
   fun:__isoc99_sscanf
   fun:parsedate
   fun:curl_getdate
   fun:Curl_cookie_add
   fun:Curl_http_readwrite_headers
   fun:readwrite_data
   fun:Curl_readwrite
   fun:multi_runsingle
   fun:curl_multi_perform
   fun:easy_transfer
}
{
   <insert_a_suppression_name_here>
   Memcheck:Cond
   fun:_IO_sputbackc
   fun:_IO_vfscanf
   fun:__isoc99_vsscanf
   fun:__isoc99_sscanf
   fun:parsedate
   fun:curl_getdate
   fun:Curl_cookie_add
   fun:Curl_http_readwrite_headers
   fun:readwrite_data
   fun:Curl_readwrite
   fun:multi_runsingle
   fun:curl_multi_perform
}
{
   <insert_a_suppression_name_here>
   Memcheck:Value8
   fun:_IO_vfscanf
   fun:__isoc99_vsscanf
   fun:__isoc99_sscanf
   fun:parsedate
   fun:curl_getdate
   fun:Curl_cookie_add
   fun:Curl_http_readwrite_headers
   fun:readwrite_data
   fun:Curl_readwrite
   fun:multi_runsingle
   fun:curl_multi_perform
   fun:easy_transfer
}
{
   <insert_a_suppression_name_here>
   Memcheck:Cond
   fun:_IO_vfscanf
   fun:__isoc99_vsscanf
   fun:__isoc99_sscanf
   fun:parsedate
   fun:curl_getdate
   fun:Curl_cookie_add
   fun:Curl_http_readwrite_headers
   fun:readwrite_data
   fun:Curl_readwrite
   fun:multi_runsingle
   fun:curl_multi_perform
   fun:easy_transfer
}
{
   <insert_a_suppression_name_here>
   Memcheck:Cond
   fun:_IO_vfscanf
   fun:__isoc99_vsscanf
   fun:__isoc99_sscanf
   fun:parsedate
   fun:curl_getdate
   fun:Curl_cookie_add
   fun:Curl_http_readwrite_headers
   fun:readwrite_data
   fun:Curl_readwrite
   fun:multi_runsingle
   fun:curl_multi_perform
   fun:easy_transfer
}
{
   <insert_a_suppression_name_here>
   Memcheck:Cond
   fun:_IO_vfscanf
   fun:__isoc99_vsscanf
   fun:__isoc99_sscanf
   fun:parsedate
   fun:curl_getdate
   fun:Curl_cookie_add
   fun:Curl_http_readwrite_headers
   fun:readwrite_data
   fun:Curl_readwrite
   fun:multi_runsingle
   fun:curl_multi_perform
   fun:easy_transfer
}
{
   <insert_a_suppression_name_here>
   Memcheck:Cond
   fun:_IO_vfscanf
   fun:__isoc99_vsscanf
   fun:__isoc99_sscanf
   fun:parsedate
   fun:curl_getdate
   fun:Curl_cookie_add
   fun:Curl_http_readwrite_headers
   fun:readwrite_data
   fun:Curl_readwrite
   fun:multi_runsingle
   fun:curl_multi_perform
   fun:easy_transfer
}
{
   <insert_a_suppression_name_here>
   Memcheck:Cond
   fun:_IO_vfscanf
   fun:__isoc99_vsscanf
   fun:__isoc99_sscanf
   fun:parsedate
   fun:curl_getdate
   fun:Curl_cookie_add
   fun:Curl_http_readwrite_headers
   fun:readwrite_data
   fun:Curl_readwrite
   fun:multi_runsingle
   fun:curl_multi_perform
   fun:easy_transfer
}
{
   <insert_a_suppression_name_here>
   Memcheck:Cond
   fun:_IO_vfscanf
   fun:__isoc99_vsscanf
   fun:__isoc99_sscanf
   fun:parsedate
   fun:curl_getdate
   fun:Curl_cookie_add
   fun:Curl_http_readwrite_headers
   fun:readwrite_data
   fun:Curl_readwrite
   fun:multi_runsingle
   fun:curl_multi_perform
   fun:easy_transfer
}
{
   <insert_a_suppression_name_here>
   Memcheck:Cond
   fun:_IO_vfscanf
   fun:__isoc99_vsscanf
   fun:__isoc99_sscanf
   fun:parsedate
   fun:curl_getdate
   fun:Curl_cookie_add
   fun:Curl_http_readwrite_headers
   fun:readwrite_data
   fun:Curl_readwrite
   fun:multi_runsingle
   fun:curl_multi_perform
   fun:easy_transfer
}
{
   <insert_a_suppression_name_here>
   Memcheck:Cond
   fun:_IO_vfscanf
   fun:__isoc99_vsscanf
   fun:__isoc99_sscanf
   fun:parsedate
   fun:curl_getdate
   fun:Curl_cookie_add
   fun:Curl_http_readwrite_headers
   fun:readwrite_data
   fun:Curl_readwrite
   fun:multi_runsingle
   fun:curl_multi_perform
   fun:easy_transfer
}
{
   <insert_a_suppression_name_here>
   Memcheck:Cond
   fun:_IO_vfscanf
   fun:__isoc99_vsscanf
   fun:__isoc99_sscanf
   fun:parsedate
   fun:curl_getdate
   fun:Curl_cookie_add
   fun:Curl_http_readwrite_headers
   fun:readwrite_data
   fun:Curl_readwrite
   fun:multi_runsingle
   fun:curl_multi_perform
   fun:easy_transfer
}
{
   <insert_a_suppression_name_here>
   Memcheck:Cond
   fun:_IO_vfscanf
   fun:__isoc99_vsscanf
   fun:__isoc99_sscanf
   fun:parsedate
   fun:curl_getdate
   fun:Curl_cookie_add
   fun:Curl_http_readwrite_headers
   fun:readwrite_data
   fun:Curl_readwrite
   fun:multi_runsingle
   fun:curl_multi_perform
   fun:easy_transfer
}
{
   <insert_a_suppression_name_here>
   Memcheck:Cond
   fun:_IO_vfscanf
   fun:__isoc99_vsscanf
   fun:__isoc99_sscanf
   fun:parsedate
   fun:curl_getdate
   fun:Curl_cookie_add
   fun:Curl_http_readwrite_headers
   fun:readwrite_data
   fun:Curl_readwrite
   fun:multi_runsingle
   fun:curl_multi_perform
   fun:easy_transfer
}
{
   <insert_a_suppression_name_here>
   Memcheck:Value8
   fun:____strtol_l_internal
   fun:parsedate
   fun:curl_getdate
   fun:Curl_cookie_add
   fun:Curl_http_readwrite_headers
   fun:readwrite_data
   fun:Curl_readwrite
   fun:multi_runsingle
   fun:curl_multi_perform
   fun:easy_transfer
   fun:easy_perform
   fun:curl_easy_perform
}
{
   <insert_a_suppression_name_here>
   Memcheck:Value8
   fun:____strtol_l_internal
   fun:parsedate
   fun:curl_getdate
   fun:Curl_cookie_add
   fun:Curl_http_readwrite_headers
   fun:readwrite_data
   fun:Curl_readwrite
   fun:multi_runsingle
   fun:curl_multi_perform
   fun:easy_transfer
   fun:easy_perform
   fun:curl_easy_perform
}
{
   <insert_a_suppression_name_here>
   Memcheck:Cond
   fun:Curl_raw_toupper
   fun:Curl_raw_equal
   fun:checkmonth
   fun:parsedate
   fun:curl_getdate
   fun:Curl_cookie_add
   fun:Curl_http_readwrite_headers
   fun:readwrite_data
   fun:Curl_readwrite
   fun:multi_runsingle
   fun:curl_multi_perform
   fun:easy_transfer
}
{
   <insert_a_suppression_name_here>
   Memcheck:Cond
   fun:Curl_raw_toupper
   fun:Curl_raw_equal
   fun:checkmonth
   fun:parsedate
   fun:curl_getdate
   fun:Curl_cookie_add
   fun:Curl_http_readwrite_headers
   fun:readwrite_data
   fun:Curl_readwrite
   fun:multi_runsingle
   fun:curl_multi_perform
   fun:easy_transfer
}
{
   <insert_a_suppression_name_here>
   Memcheck:Value8
   fun:Curl_raw_toupper
   fun:Curl_raw_equal
   fun:checkmonth
   fun:parsedate
   fun:curl_getdate
   fun:Curl_cookie_add
   fun:Curl_http_readwrite_headers
   fun:readwrite_data
   fun:Curl_readwrite
   fun:multi_runsingle
   fun:curl_multi_perform
   fun:easy_transfer
}
{
   <insert_a_suppression_name_here>
   Memcheck:Cond
   fun:____strtol_l_internal
   fun:_IO_vfscanf
   fun:__isoc99_vsscanf
   fun:__isoc99_sscanf
   fun:parsedate
   fun:curl_getdate
   fun:Curl_cookie_add
   fun:Curl_http_readwrite_headers
   fun:readwrite_data
   fun:Curl_readwrite
   fun:multi_runsingle
   fun:curl_multi_perform
}
{
   <insert_a_suppression_name_here>
   Memcheck:Cond
   fun:_IO_vfscanf
   fun:__isoc99_vsscanf
   fun:__isoc99_sscanf
   fun:parsedate
   fun:curl_getdate
   fun:Curl_cookie_add
   fun:Curl_http_readwrite_headers
   fun:readwrite_data
   fun:Curl_readwrite
   fun:multi_runsingle
   fun:curl_multi_perform
   fun:easy_transfer
}
{
   <insert_a_suppression_name_here>
   Memcheck:Value8
   fun:_IO_vfscanf
   fun:__isoc99_vsscanf
   fun:__isoc99_sscanf
   fun:parsedate
   fun:curl_getdate
   fun:Curl_cookie_add
   fun:Curl_http_readwrite_headers
   fun:readwrite_data
   fun:Curl_readwrite
   fun:multi_runsingle
   fun:curl_multi_perform
   fun:easy_transfer
}
{
   <insert_a_suppression_name_here>
   Memcheck:Cond
   fun:Curl_raw_toupper
   fun:Curl_raw_equal
   fun:checktz
   fun:parsedate
   fun:curl_getdate
   fun:Curl_cookie_add
   fun:Curl_http_readwrite_headers
   fun:readwrite_data
   fun:Curl_readwrite
   fun:multi_runsingle
   fun:curl_multi_perform
   fun:easy_transfer
}
{
   <insert_a_suppression_name_here>
   Memcheck:Value8
   fun:_IO_vfscanf
   fun:__isoc99_vsscanf
   fun:__isoc99_sscanf
   fun:Curl_cookie_add
   fun:Curl_http_readwrite_headers
   fun:readwrite_data
   fun:Curl_readwrite
   fun:multi_runsingle
   fun:curl_multi_perform
   fun:easy_transfer
   fun:easy_perform
   fun:curl_easy_perform
}
{
   <insert_a_suppression_name_here>
   Memcheck:Value8
   ...
   fun:easy_transfer
}
{
   <insert_a_suppression_name_here>
   Memcheck:Cond
   fun:memcpy@GLIBC_2.2.5
   fun:_ZNSt11__copy_moveILb1ELb1ESt26random_access_iterator_tagE8__copy_mIhEEPT_PKS3_S6_S4_
   fun:_ZSt13__copy_move_aILb1EPhS0_ET1_T0_S2_S1_
   fun:_ZSt14__copy_move_a2ILb1EPhS0_ET1_T0_S2_S1_
   fun:_ZSt4copyISt13move_iteratorIPhES1_ET0_T_S4_S3_
   fun:_ZNSt20__uninitialized_copyILb1EE13__uninit_copyISt13move_iteratorIPhES3_EET0_T_S6_S5_
   fun:_ZSt18uninitialized_copyISt13move_iteratorIPhES1_ET0_T_S4_S3_
   fun:_ZSt22__uninitialized_copy_aISt13move_iteratorIPhES1_hET0_T_S4_S3_RSaIT1_E
   fun:_ZSt34__uninitialized_move_if_noexcept_aIPhS0_SaIhEET0_T_S3_S2_RT1_
   fun:_ZNSt6vectorIhSaIhEE15_M_range_insertIPKhEEvN9__gnu_cxx17__normal_iteratorIPhS1_EET_S9_St20forward_iterator_tag
   fun:_ZNSt6vectorIhSaIhEE18_M_insert_dispatchIPKhEEvN9__gnu_cxx17__normal_iteratorIPhS1_EET_S9_St12__false_type
   fun:_ZNSt6vectorIhSaIhEE6insertIPKhvEEN9__gnu_cxx17__normal_iteratorIPhS1_EENS6_IS4_S1_EET_SA_
}
{
   <insert_a_suppression_name_here>
   Memcheck:Cond
   fun:memcpy@GLIBC_2.2.5
   fun:_ZNSt11__copy_moveILb1ELb1ESt26random_access_iterator_tagE8__copy_mIhEEPT_PKS3_S6_S4_
   fun:_ZSt13__copy_move_aILb1EPhS0_ET1_T0_S2_S1_
   fun:_ZSt14__copy_move_a2ILb1EPhS0_ET1_T0_S2_S1_
   fun:_ZSt4copyISt13move_iteratorIPhES1_ET0_T_S4_S3_
   fun:_ZNSt20__uninitialized_copyILb1EE13__uninit_copyISt13move_iteratorIPhES3_EET0_T_S6_S5_
   fun:_ZSt18uninitialized_copyISt13move_iteratorIPhES1_ET0_T_S4_S3_
   fun:_ZSt22__uninitialized_copy_aISt13move_iteratorIPhES1_hET0_T_S4_S3_RSaIT1_E
   fun:_ZSt34__uninitialized_move_if_noexcept_aIPhS0_SaIhEET0_T_S3_S2_RT1_
   fun:_ZNSt6vectorIhSaIhEE15_M_range_insertIPKhEEvN9__gnu_cxx17__normal_iteratorIPhS1_EET_S9_St20forward_iterator_tag
   fun:_ZNSt6vectorIhSaIhEE18_M_insert_dispatchIPKhEEvN9__gnu_cxx17__normal_iteratorIPhS1_EET_S9_St12__false_type
   fun:_ZNSt6vectorIhSaIhEE6insertIPKhvEEN9__gnu_cxx17__normal_iteratorIPhS1_EENS6_IS4_S1_EET_SA_
}
{
   <insert_a_suppression_name_here>
   Memcheck:Cond
   fun:memcpy@GLIBC_2.2.5
   fun:_ZNSt11__copy_moveILb1ELb1ESt26random_access_iterator_tagE8__copy_mIhEEPT_PKS3_S6_S4_
   fun:_ZSt13__copy_move_aILb1EPhS0_ET1_T0_S2_S1_
   fun:_ZSt14__copy_move_a2ILb1EPhS0_ET1_T0_S2_S1_
   fun:_ZSt4copyISt13move_iteratorIPhES1_ET0_T_S4_S3_
   fun:_ZNSt20__uninitialized_copyILb1EE13__uninit_copyISt13move_iteratorIPhES3_EET0_T_S6_S5_
   fun:_ZSt18uninitialized_copyISt13move_iteratorIPhES1_ET0_T_S4_S3_
   fun:_ZSt22__uninitialized_copy_aISt13move_iteratorIPhES1_hET0_T_S4_S3_RSaIT1_E
   fun:_ZSt34__uninitialized_move_if_noexcept_aIPhS0_SaIhEET0_T_S3_S2_RT1_
   fun:_ZNSt6vectorIhSaIhEE15_M_range_insertIPKhEEvN9__gnu_cxx17__normal_iteratorIPhS1_EET_S9_St20forward_iterator_tag
   fun:_ZNSt6vectorIhSaIhEE18_M_insert_dispatchIPKhEEvN9__gnu_cxx17__normal_iteratorIPhS1_EET_S9_St12__false_type
   fun:_ZNSt6vectorIhSaIhEE6insertIPKhvEEN9__gnu_cxx17__normal_iteratorIPhS1_EENS6_IS4_S1_EET_SA_
}
{
   <insert_a_suppression_name_here>
   Memcheck:Cond
   fun:memcpy@GLIBC_2.2.5
   fun:_ZNSt11__copy_moveILb1ELb1ESt26random_access_iterator_tagE8__copy_mIhEEPT_PKS3_S6_S4_
   fun:_ZSt13__copy_move_aILb1EPhS0_ET1_T0_S2_S1_
   fun:_ZSt14__copy_move_a2ILb1EPhS0_ET1_T0_S2_S1_
   fun:_ZSt4copyISt13move_iteratorIPhES1_ET0_T_S4_S3_
   fun:_ZNSt20__uninitialized_copyILb1EE13__uninit_copyISt13move_iteratorIPhES3_EET0_T_S6_S5_
   fun:_ZSt18uninitialized_copyISt13move_iteratorIPhES1_ET0_T_S4_S3_
   fun:_ZSt22__uninitialized_copy_aISt13move_iteratorIPhES1_hET0_T_S4_S3_RSaIT1_E
   fun:_ZSt34__uninitialized_move_if_noexcept_aIPhS0_SaIhEET0_T_S3_S2_RT1_
   fun:_ZNSt6vectorIhSaIhEE15_M_range_insertIPKhEEvN9__gnu_cxx17__normal_iteratorIPhS1_EET_S9_St20forward_iterator_tag
   fun:_ZNSt6vectorIhSaIhEE18_M_insert_dispatchIPKhEEvN9__gnu_cxx17__normal_iteratorIPhS1_EET_S9_St12__false_type
   fun:_ZNSt6vectorIhSaIhEE6insertIPKhvEEN9__gnu_cxx17__normal_iteratorIPhS1_EENS6_IS4_S1_EET_SA_
}
{
   <insert_a_suppression_name_here>
   Memcheck:Cond
   fun:memcpy@GLIBC_2.2.5
   fun:_ZNSt11__copy_moveILb1ELb1ESt26random_access_iterator_tagE8__copy_mIhEEPT_PKS3_S6_S4_
   fun:_ZSt13__copy_move_aILb1EPhS0_ET1_T0_S2_S1_
   fun:_ZSt14__copy_move_a2ILb1EPhS0_ET1_T0_S2_S1_
   fun:_ZSt4copyISt13move_iteratorIPhES1_ET0_T_S4_S3_
   fun:_ZNSt20__uninitialized_copyILb1EE13__uninit_copyISt13move_iteratorIPhES3_EET0_T_S6_S5_
   fun:_ZSt18uninitialized_copyISt13move_iteratorIPhES1_ET0_T_S4_S3_
   fun:_ZSt22__uninitialized_copy_aISt13move_iteratorIPhES1_hET0_T_S4_S3_RSaIT1_E
   fun:_ZSt34__uninitialized_move_if_noexcept_aIPhS0_SaIhEET0_T_S3_S2_RT1_
   fun:_ZNSt6vectorIhSaIhEE15_M_range_insertIPKhEEvN9__gnu_cxx17__normal_iteratorIPhS1_EET_S9_St20forward_iterator_tag
   fun:_ZNSt6vectorIhSaIhEE18_M_insert_dispatchIPKhEEvN9__gnu_cxx17__normal_iteratorIPhS1_EET_S9_St12__false_type
   fun:_ZNSt6vectorIhSaIhEE6insertIPKhvEEN9__gnu_cxx17__normal_iteratorIPhS1_EENS6_IS4_S1_EET_SA_
}
{
   <insert_a_suppression_name_here>
   Memcheck:Cond
   fun:memcpy@GLIBC_2.2.5
   fun:_ZNSt11__copy_moveILb1ELb1ESt26random_access_iterator_tagE8__copy_mIhEEPT_PKS3_S6_S4_
   fun:_ZSt13__copy_move_aILb1EPhS0_ET1_T0_S2_S1_
   fun:_ZSt14__copy_move_a2ILb1EPhS0_ET1_T0_S2_S1_
   fun:_ZSt4copyISt13move_iteratorIPhES1_ET0_T_S4_S3_
   fun:_ZNSt20__uninitialized_copyILb1EE13__uninit_copyISt13move_iteratorIPhES3_EET0_T_S6_S5_
   fun:_ZSt18uninitialized_copyISt13move_iteratorIPhES1_ET0_T_S4_S3_
   fun:_ZSt22__uninitialized_copy_aISt13move_iteratorIPhES1_hET0_T_S4_S3_RSaIT1_E
   fun:_ZSt34__uninitialized_move_if_noexcept_aIPhS0_SaIhEET0_T_S3_S2_RT1_
   fun:_ZNSt6vectorIhSaIhEE15_M_range_insertIPKhEEvN9__gnu_cxx17__normal_iteratorIPhS1_EET_S9_St20forward_iterator_tag
   fun:_ZNSt6vectorIhSaIhEE18_M_insert_dispatchIPKhEEvN9__gnu_cxx17__normal_iteratorIPhS1_EET_S9_St12__false_type
   fun:_ZNSt6vectorIhSaIhEE6insertIPKhvEEN9__gnu_cxx17__normal_iteratorIPhS1_EENS6_IS4_S1_EET_SA_
}
{
   <insert_a_suppression_name_here>
   Memcheck:Value8
   fun:memcpy@GLIBC_2.2.5
   fun:_ZNSt11__copy_moveILb1ELb1ESt26random_access_iterator_tagE8__copy_mIhEEPT_PKS3_S6_S4_
   fun:_ZSt13__copy_move_aILb1EPhS0_ET1_T0_S2_S1_
   fun:_ZSt14__copy_move_a2ILb1EPhS0_ET1_T0_S2_S1_
   fun:_ZSt4copyISt13move_iteratorIPhES1_ET0_T_S4_S3_
   fun:_ZNSt20__uninitialized_copyILb1EE13__uninit_copyISt13move_iteratorIPhES3_EET0_T_S6_S5_
   fun:_ZSt18uninitialized_copyISt13move_iteratorIPhES1_ET0_T_S4_S3_
   fun:_ZSt22__uninitialized_copy_aISt13move_iteratorIPhES1_hET0_T_S4_S3_RSaIT1_E
   fun:_ZSt34__uninitialized_move_if_noexcept_aIPhS0_SaIhEET0_T_S3_S2_RT1_
   fun:_ZNSt6vectorIhSaIhEE15_M_range_insertIPKhEEvN9__gnu_cxx17__normal_iteratorIPhS1_EET_S9_St20forward_iterator_tag
   fun:_ZNSt6vectorIhSaIhEE18_M_insert_dispatchIPKhEEvN9__gnu_cxx17__normal_iteratorIPhS1_EET_S9_St12__false_type
   fun:_ZNSt6vectorIhSaIhEE6insertIPKhvEEN9__gnu_cxx17__normal_iteratorIPhS1_EENS6_IS4_S1_EET_SA_
}
{
   <insert_a_suppression_name_here>
   Memcheck:Value8
   fun:memcpy@GLIBC_2.2.5
   fun:_ZNSt11__copy_moveILb1ELb1ESt26random_access_iterator_tagE8__copy_mIhEEPT_PKS3_S6_S4_
   fun:_ZSt13__copy_move_aILb1EPhS0_ET1_T0_S2_S1_
   fun:_ZSt14__copy_move_a2ILb1EPhS0_ET1_T0_S2_S1_
   fun:_ZSt4copyISt13move_iteratorIPhES1_ET0_T_S4_S3_
   fun:_ZNSt20__uninitialized_copyILb1EE13__uninit_copyISt13move_iteratorIPhES3_EET0_T_S6_S5_
   fun:_ZSt18uninitialized_copyISt13move_iteratorIPhES1_ET0_T_S4_S3_
   fun:_ZSt22__uninitialized_copy_aISt13move_iteratorIPhES1_hET0_T_S4_S3_RSaIT1_E
   fun:_ZSt34__uninitialized_move_if_noexcept_aIPhS0_SaIhEET0_T_S3_S2_RT1_
   fun:_ZNSt6vectorIhSaIhEE15_M_range_insertIPKhEEvN9__gnu_cxx17__normal_iteratorIPhS1_EET_S9_St20forward_iterator_tag
   fun:_ZNSt6vectorIhSaIhEE18_M_insert_dispatchIPKhEEvN9__gnu_cxx17__normal_iteratorIPhS1_EET_S9_St12__false_type
   fun:_ZNSt6vectorIhSaIhEE6insertIPKhvEEN9__gnu_cxx17__normal_iteratorIPhS1_EENS6_IS4_S1_EET_SA_
}
{
   <insert_a_suppression_name_here>
   Memcheck:Cond
   fun:memcpy@GLIBC_2.2.5
   fun:_ZNSt11__copy_moveILb1ELb1ESt26random_access_iterator_tagE8__copy_mIhEEPT_PKS3_S6_S4_
   fun:_ZSt13__copy_move_aILb1EPhS0_ET1_T0_S2_S1_
   fun:_ZSt14__copy_move_a2ILb1EPhS0_ET1_T0_S2_S1_
   fun:_ZSt4copyISt13move_iteratorIPhES1_ET0_T_S4_S3_
   fun:_ZNSt20__uninitialized_copyILb1EE13__uninit_copyISt13move_iteratorIPhES3_EET0_T_S6_S5_
   fun:_ZSt18uninitialized_copyISt13move_iteratorIPhES1_ET0_T_S4_S3_
   fun:_ZSt22__uninitialized_copy_aISt13move_iteratorIPhES1_hET0_T_S4_S3_RSaIT1_E
   fun:_ZSt34__uninitialized_move_if_noexcept_aIPhS0_SaIhEET0_T_S3_S2_RT1_
   fun:_ZNSt6vectorIhSaIhEE15_M_range_insertIPKhEEvN9__gnu_cxx17__normal_iteratorIPhS1_EET_S9_St20forward_iterator_tag
   fun:_ZNSt6vectorIhSaIhEE18_M_insert_dispatchIPKhEEvN9__gnu_cxx17__normal_iteratorIPhS1_EET_S9_St12__false_type
   fun:_ZNSt6vectorIhSaIhEE6insertIPKhvEEN9__gnu_cxx17__normal_iteratorIPhS1_EENS6_IS4_S1_EET_SA_
}
{
   <insert_a_suppression_name_here>
   Memcheck:Value8
   fun:memcpy@GLIBC_2.2.5
   fun:_ZNSt11__copy_moveILb1ELb1ESt26random_access_iterator_tagE8__copy_mIhEEPT_PKS3_S6_S4_
   fun:_ZSt13__copy_move_aILb1EPhS0_ET1_T0_S2_S1_
   fun:_ZSt14__copy_move_a2ILb1EPhS0_ET1_T0_S2_S1_
   fun:_ZSt4copyISt13move_iteratorIPhES1_ET0_T_S4_S3_
   fun:_ZNSt20__uninitialized_copyILb1EE13__uninit_copyISt13move_iteratorIPhES3_EET0_T_S6_S5_
   fun:_ZSt18uninitialized_copyISt13move_iteratorIPhES1_ET0_T_S4_S3_
   fun:_ZSt22__uninitialized_copy_aISt13move_iteratorIPhES1_hET0_T_S4_S3_RSaIT1_E
   fun:_ZSt34__uninitialized_move_if_noexcept_aIPhS0_SaIhEET0_T_S3_S2_RT1_
   fun:_ZNSt6vectorIhSaIhEE15_M_range_insertIPKhEEvN9__gnu_cxx17__normal_iteratorIPhS1_EET_S9_St20forward_iterator_tag
   fun:_ZNSt6vectorIhSaIhEE18_M_insert_dispatchIPKhEEvN9__gnu_cxx17__normal_iteratorIPhS1_EET_S9_St12__false_type
   fun:_ZNSt6vectorIhSaIhEE6insertIPKhvEEN9__gnu_cxx17__normal_iteratorIPhS1_EENS6_IS4_S1_EET_SA_
}
{
   <insert_a_suppression_name_here>
   Memcheck:Value8
   fun:memcpy@GLIBC_2.2.5
   fun:_ZNSt11__copy_moveILb1ELb1ESt26random_access_iterator_tagE8__copy_mIhEEPT_PKS3_S6_S4_
   fun:_ZSt13__copy_move_aILb1EPhS0_ET1_T0_S2_S1_
   fun:_ZSt14__copy_move_a2ILb1EPhS0_ET1_T0_S2_S1_
   fun:_ZSt4copyISt13move_iteratorIPhES1_ET0_T_S4_S3_
   fun:_ZNSt20__uninitialized_copyILb1EE13__uninit_copyISt13move_iteratorIPhES3_EET0_T_S6_S5_
   fun:_ZSt18uninitialized_copyISt13move_iteratorIPhES1_ET0_T_S4_S3_
   fun:_ZSt22__uninitialized_copy_aISt13move_iteratorIPhES1_hET0_T_S4_S3_RSaIT1_E
   fun:_ZSt34__uninitialized_move_if_noexcept_aIPhS0_SaIhEET0_T_S3_S2_RT1_
   fun:_ZNSt6vectorIhSaIhEE15_M_range_insertIPKhEEvN9__gnu_cxx17__normal_iteratorIPhS1_EET_S9_St20forward_iterator_tag
   fun:_ZNSt6vectorIhSaIhEE18_M_insert_dispatchIPKhEEvN9__gnu_cxx17__normal_iteratorIPhS1_EET_S9_St12__false_type
   fun:_ZNSt6vectorIhSaIhEE6insertIPKhvEEN9__gnu_cxx17__normal_iteratorIPhS1_EENS6_IS4_S1_EET_SA_
}
{
   <insert_a_suppression_name_here>
   Memcheck:Cond
   fun:memcpy@GLIBC_2.2.5
   fun:_ZNSt11__copy_moveILb1ELb1ESt26random_access_iterator_tagE8__copy_mIhEEPT_PKS3_S6_S4_
   fun:_ZSt13__copy_move_aILb1EPhS0_ET1_T0_S2_S1_
   fun:_ZSt14__copy_move_a2ILb1EPhS0_ET1_T0_S2_S1_
   fun:_ZSt4copyISt13move_iteratorIPhES1_ET0_T_S4_S3_
   fun:_ZNSt20__uninitialized_copyILb1EE13__uninit_copyISt13move_iteratorIPhES3_EET0_T_S6_S5_
   fun:_ZSt18uninitialized_copyISt13move_iteratorIPhES1_ET0_T_S4_S3_
   fun:_ZSt22__uninitialized_copy_aISt13move_iteratorIPhES1_hET0_T_S4_S3_RSaIT1_E
   fun:_ZSt34__uninitialized_move_if_noexcept_aIPhS0_SaIhEET0_T_S3_S2_RT1_
   fun:_ZNSt6vectorIhSaIhEE15_M_range_insertIPKhEEvN9__gnu_cxx17__normal_iteratorIPhS1_EET_S9_St20forward_iterator_tag
   fun:_ZNSt6vectorIhSaIhEE18_M_insert_dispatchIPKhEEvN9__gnu_cxx17__normal_iteratorIPhS1_EET_S9_St12__false_type
   fun:_ZNSt6vectorIhSaIhEE6insertIPKhvEEN9__gnu_cxx17__normal_iteratorIPhS1_EENS6_IS4_S1_EET_SA_
}
{
   <insert_a_suppression_name_here>
   Memcheck:Cond
   fun:memcpy@GLIBC_2.2.5
   fun:_ZNSt11__copy_moveILb1ELb1ESt26random_access_iterator_tagE8__copy_mIhEEPT_PKS3_S6_S4_
   fun:_ZSt13__copy_move_aILb1EPhS0_ET1_T0_S2_S1_
   fun:_ZSt14__copy_move_a2ILb1EPhS0_ET1_T0_S2_S1_
   fun:_ZSt4copyISt13move_iteratorIPhES1_ET0_T_S4_S3_
   fun:_ZNSt20__uninitialized_copyILb1EE13__uninit_copyISt13move_iteratorIPhES3_EET0_T_S6_S5_
   fun:_ZSt18uninitialized_copyISt13move_iteratorIPhES1_ET0_T_S4_S3_
   fun:_ZSt22__uninitialized_copy_aISt13move_iteratorIPhES1_hET0_T_S4_S3_RSaIT1_E
   fun:_ZSt34__uninitialized_move_if_noexcept_aIPhS0_SaIhEET0_T_S3_S2_RT1_
   fun:_ZNSt6vectorIhSaIhEE15_M_range_insertIPKhEEvN9__gnu_cxx17__normal_iteratorIPhS1_EET_S9_St20forward_iterator_tag
   fun:_ZNSt6vectorIhSaIhEE18_M_insert_dispatchIPKhEEvN9__gnu_cxx17__normal_iteratorIPhS1_EET_S9_St12__false_type
   fun:_ZNSt6vectorIhSaIhEE6insertIPKhvEEN9__gnu_cxx17__normal_iteratorIPhS1_EENS6_IS4_S1_EET_SA_
}
