{
   HelpgrindBugWithStdCPPThreads-docs-say-rebuild-libs-with-flags
   Helgrind:Race
   fun:mempcpy
   ...
   fun:allocate_stack
   fun:pthread_create@@GLIBC_*
   ...
}
{
   POSIX_ALLOWS_STDCPP_DOCS_FOR_NOTIFY_ONE_USE_THIS_AS_EXAMPLE_SO_THINK_OK
   Helgrind:Misc
   ...
   fun:_ZNSt18condition_variable10notify_oneEv
   ...
}
{
   https://stroika.atlassian.net/browse/STK-483
   Helgrind:Race
   ...
   fun:_ZN7Stroika10Foundation9Execution21SignalHandlerRegistry23FirstPassSignalHandler_Ei
   ...
}
{
   ERRANT_WARNIGN_CUZ_ONLY_CHANGED_IN_THREADS_WHICH_COMPLETED for regtest Foundation::Execution::Threads
   Helgrind:Race
   fun:PingBackAndForthWithSimpleTimeouts_
   fun:RegressionTest3_WaitableEvents_
   fun:_ZN12_GLOBAL__N_118DoRegressionTests_Ev
   fun:_ZN7Stroika11TestHarness15PrintPassOrFailEPFvvE
   fun:main
}
{
   Helgrind_WARNS_EINTR_Error_With_SemWait_As_Problem_Even_Though_Handled   - AGAIN
   Helgrind:PthAPIerror
   ...
   fun:_ZZN7Stroika10Foundation9Execution21SignalHandlerRegistry18SafeSignalsManager4Rep_C4EvENKUlvE_clEv
   ...
}
{
   Helgrind_WARNS_EINTR_Error_With_SemWait_As_Problem_Even_Though_Handled   - Thread #2's call to sem_wait failed with error code 4 (EINTR: Interrupted system call)
   Helgrind:PthAPIerror
   ...
   fun:_ZN7Stroika10Foundation9Execution8Platform5POSIX16SemWaitableEvent4WaitEv
   ...
}
{
   Helgrind_WARNS_EINTR_Error_With_SemWait_As_Problem_Even_Though_Handled (for ARM)   - Thread #2's call to sem_wait failed with error code 4 (EINTR: Interrupted system call)
   Helgrind:PthAPIerror
   fun:sem_wait_WRK
   fun:_ZNSt17_Function_handlerIFvvEZN7Stroika10Foundation9Execution21SignalHandlerRegistry18SafeSignalsManager4Rep_C4EvEUlvE_E9_M_invokeERKSt9_Any_data
}
{
   https://stroika.atlassian.net/browse/STK-620
   Helgrind:Misc
   ...
   fun:_ZNSt18condition_variable10notify_allEv
   ...
}
{
   https://stroika.atlassian.net/browse/STK-628
   Helgrind:Misc
   obj:/usr/lib/valgrind/vgpreload_helgrind-amd64-linux.so
   ...
   fun:_ZN7Stroika10Foundation9Execution13WaitableEvent3WE_16WaitUntilQuietlyEd
}
{
   https://stroika.atlassian.net/browse/STK-628
   Helgrind:Misc
   ...
   fun:__pthread_cond_wait_common
   ...
   fun:_ZN7Stroika10Foundation9Execution13WaitableEvent3WE_16WaitUntilQuietlyEd
}
{
   https://stroika.atlassian.net/browse/STK-736 (sqlite)
   Helgrind:Race
   ...
   fun:sqlite3_mutex_enter
   ...
}
{
   https://stroika.atlassian.net/browse/STK-741
   Helgrind:Race
   ...
   fun:*ConstantProperty*
}
{
   https://stroika.atlassian.net/browse/STK-644 - fails on Ubuntu 21.10, valgrind -q --gen-suppressions=yes --tool=helgrind --suppressions=Tests/Valgrind-Helgrind-Common.supp  Builds/valgrind-release-SSLPurify-NoBlockAlloc/Tests/Test31
   Helgrind:Misc
   obj:/usr/lib/x86_64-linux-gnu/valgrind/vgpreload_helgrind-amd64-linux.so
   fun:CRYPTO_THREAD_lock_free
   ...
   fun:OSSL_PROVIDER_load
   ...
   fun:TemporarilyAddProvider
}

{
   https://stroika.atlassian.net/browse/STK-717 - qCompiler_SanitizerDoubleLockWithConditionVariables_Buggy
   Helgrind:Misc
   ...
   fun:_ZN7Stroika10Foundation9Execution13WaitableEvent3SetEv
   ...
#   obj:/usr/libexec/valgrind/vgpreload_helgrind-amd64-linux.so
#   fun:_ZL20__gthread_mutex_lockP15pthread_mutex_t
#   fun:_ZNSt5mutex4lockEv
#   fun:_ZNSt10lock_guardISt5mutexEC1ERS0_
#   fun:_ZN7Stroika10Foundation9Execution13WaitableEvent3WE_3SetEv
#   fun:_ZN7Stroika10Foundation9Execution13WaitableEvent3SetEv
#   fun:_ZN7Stroika10Foundation9Execution6Thread3Ptr4Rep_11ThreadMain_EPKSt10shared_ptrIS4_E
#   fun:_ZZN7Stroika10Foundation9Execution6Thread3Ptr4Rep_8DoCreateEPKSt10shared_ptrIS4_EENKUlvE_clEv
#   fun:_ZSt13__invoke_implIvZN7Stroika10Foundation9Execution6Thread3Ptr4Rep_8DoCreateEPKSt10shared_ptrIS5_EEUlvE_JEET_St14__invoke_otherOT0_DpOT1_
#   fun:_ZSt8__invokeIZN7Stroika10Foundation9Execution6Thread3Ptr4Rep_8DoCreateEPKSt10shared_ptrIS5_EEUlvE_JEENSt15__invoke_resultIT_JDpT0_EE4typeEOSC_DpOSD_
#   fun:_ZNSt6thread8_InvokerISt5tupleIJZN7Stroika10Foundation9Execution6Thread3Ptr4Rep_8DoCreateEPKSt10shared_ptrIS7_EEUlvE_EEE9_M_invokeIJLm0EEEEvSt12_Index_tupleIJXspT_EEE
#   fun:_ZNSt6thread8_InvokerISt5tupleIJZN7Stroika10Foundation9Execution6Thread3Ptr4Rep_8DoCreateEPKSt10shared_ptrIS7_EEUlvE_EEEclEv
}
{
   https://stroika.atlassian.net/browse/STK-717 - qCompiler_SanitizerDoubleLockWithConditionVariables_Buggy
   Helgrind:Race
   ...
   fun:_ZN7Stroika10Foundation9Execution13WaitableEvent3SetEv
   ...
#   fun:_ZN7Stroika10Foundation9Execution13WaitableEvent3WE_3SetEv
#   fun:_ZN7Stroika10Foundation9Execution13WaitableEvent3SetEv
#   fun:_ZN7Stroika10Foundation9Execution6Thread3Ptr4Rep_11ThreadMain_EPKSt10shared_ptrIS4_E
#   fun:_ZZN7Stroika10Foundation9Execution6Thread3Ptr4Rep_8DoCreateEPKSt10shared_ptrIS4_EENKUlvE_clEv
#   fun:_ZSt13__invoke_implIvZN7Stroika10Foundation9Execution6Thread3Ptr4Rep_8DoCreateEPKSt10shared_ptrIS5_EEUlvE_JEET_St14__invoke_otherOT0_DpOT1_
#   fun:_ZSt8__invokeIZN7Stroika10Foundation9Execution6Thread3Ptr4Rep_8DoCreateEPKSt10shared_ptrIS5_EEUlvE_JEENSt15__invoke_resultIT_JDpT0_EE4typeEOSC_DpOSD_
#   fun:_ZNSt6thread8_InvokerISt5tupleIJZN7Stroika10Foundation9Execution6Thread3Ptr4Rep_8DoCreateEPKSt10shared_ptrIS7_EEUlvE_EEE9_M_invokeIJLm0EEEEvSt12_Index_tupleIJXspT_EEE
#   fun:_ZNSt6thread8_InvokerISt5tupleIJZN7Stroika10Foundation9Execution6Thread3Ptr4Rep_8DoCreateEPKSt10shared_ptrIS7_EEUlvE_EEEclEv
#   fun:_ZNSt6thread11_State_implINS_8_InvokerISt5tupleIJZN7Stroika10Foundation9Execution6Thread3Ptr4Rep_8DoCreateEPKSt10shared_ptrIS8_EEUlvE_EEEEE6_M_runEv
#   fun:execute_native_thread_routine
#   obj:/usr/libexec/valgrind/vgpreload_helgrind-amd64-linux.so
#   fun:start_thread
}
{
   https://stroika.atlassian.net/browse/STK-717 - qCompiler_SanitizerDoubleLockWithConditionVariables_Buggy
   Helgrind:UnlockForeign
   ...
   fun:_ZN7Stroika10Foundation9Execution13WaitableEvent3SetEv
   ...
   #obj:/usr/libexec/valgrind/vgpreload_helgrind-amd64-linux.so
   #fun:_ZL22__gthread_mutex_unlockP15pthread_mutex_t
   #fun:_ZNSt5mutex6unlockEv
   #fun:_ZNSt10lock_guardISt5mutexED1Ev
   #fun:_ZN7Stroika10Foundation9Execution13WaitableEvent3WE_3SetEv
   #fun:_ZN7Stroika10Foundation9Execution13WaitableEvent3SetEv
   #fun:_ZN7Stroika10Foundation9Execution6Thread3Ptr4Rep_11ThreadMain_EPKSt10shared_ptrIS4_E
   #fun:_ZZN7Stroika10Foundation9Execution6Thread3Ptr4Rep_8DoCreateEPKSt10shared_ptrIS4_EENKUlvE_clEv
   #fun:_ZSt13__invoke_implIvZN7Stroika10Foundation9Execution6Thread3Ptr4Rep_8DoCreateEPKSt10shared_ptrIS5_EEUlvE_JEET_St14__invoke_otherOT0_DpOT1_
   #fun:_ZSt8__invokeIZN7Stroika10Foundation9Execution6Thread3Ptr4Rep_8DoCreateEPKSt10shared_ptrIS5_EEUlvE_JEENSt15__invoke_resultIT_JDpT0_EE4typeEOSC_DpOSD_
   #fun:_ZNSt6thread8_InvokerISt5tupleIJZN7Stroika10Foundation9Execution6Thread3Ptr4Rep_8DoCreateEPKSt10shared_ptrIS7_EEUlvE_EEE9_M_invokeIJLm0EEEEvSt12_Index_tupleIJXspT_EEE
   #fun:_ZNSt6thread8_InvokerISt5tupleIJZN7Stroika10Foundation9Execution6Thread3Ptr4Rep_8DoCreateEPKSt10shared_ptrIS7_EEUlvE_EEEclEv
}
{
   https://stroika.atlassian.net/browse/STK-717 - qCompiler_SanitizerDoubleLockWithConditionVariables_Buggy
   Helgrind:Misc
   ...
   fun:_ZN7Stroika10Foundation9Execution13WaitableEventD1Ev
   ...
   #obj:/usr/libexec/valgrind/vgpreload_helgrind-amd64-linux.so
   #fun:_ZN7Stroika10Foundation9Execution17ConditionVariableISt5mutexSt18condition_variableED1Ev
   #fun:_ZN7Stroika10Foundation9Execution13WaitableEvent3WE_D1Ev
   #fun:_ZN7Stroika10Foundation9Execution13WaitableEventD1Ev
   #
   #fun:_ZN12_GLOBAL__N_148RegressionTest2_sqlite_EmployeesDB_with_threads_8PRIVATE_11ThreadTest_ERKN7Stroika10Foundation8Database3SQL6SQLite7OptionsE
   #fun:_ZN12_GLOBAL__N_148RegressionTest2_sqlite_EmployeesDB_with_threads_4DoItEv
   #fun:_ZN12_GLOBAL__N_118DoRegressionTests_Ev
   #fun:_ZN7Stroika11TestHarness15PrintPassOrFailEPFvvE
   #fun:main
}
{
   https://stroika.atlassian.net/browse/STK-717 - qCompiler_SanitizerDoubleLockWithConditionVariables_Buggy
   Helgrind:Race
   ...
   fun:_ZN7Stroika10Foundation9Execution13WaitableEvent3WE_16WaitUntilQuietlyEd
   ...

   #fun:_ZZN7Stroika10Foundation9Execution13WaitableEvent3WE_16WaitUntilQuietlyEdENKUlvE_clEv
   #fun:_ZN7Stroika10Foundation9Execution17ConditionVariableISt5mutexSt18condition_variableE10wait_untilIZNS1_13WaitableEvent3WE_16WaitUntilQuietlyEdEUlvE_EEbRSt11unique_lockIS3_EdT_
   #fun:_ZN7Stroika10Foundation9Execution13WaitableEvent3WE_16WaitUntilQuietlyEd
   #fun:_ZN7Stroika10Foundation9Execution13WaitableEvent3WE_9WaitUntilEd
   #fun:_ZN7Stroika10Foundation9Execution13WaitableEvent4WaitEd
   #fun:_ZN7Stroika10Foundation9Execution6Thread3Ptr4Rep_8DoCreateEPKSt10shared_ptrIS4_E
   #fun:_ZNK7Stroika10Foundation9Execution6Thread3Ptr5StartEv
   #fun:_ZN7Stroika10Foundation9Execution6Thread3NewERKSt8functionIFvvEENS2_13AutoStartFlagERKSt8optionalINS0_10Characters6StringEERKS9_INS2_13ConfigurationEE
   #fun:_ZN7Stroika10Foundation9Execution21SignalHandlerRegistry18SafeSignalsManager4Rep_C1Ev
   #fun:_ZN9__gnu_cxx13new_allocatorIN7Stroika10Foundation9Execution21SignalHandlerRegistry18SafeSignalsManager4Rep_EE9constructIS6_JEEEvPT_DpOT0_
   #fun:_ZNSt16allocator_traitsISaIN7Stroika10Foundation9Execution21SignalHandlerRegistry18SafeSignalsManager4Rep_EEE9constructIS5_JEEEvRS6_PT_DpOT0_
   #fun:_ZNSt23_Sp_counted_ptr_inplaceIN7Stroika10Foundation9Execution21SignalHandlerRegistry18SafeSignalsManager4Rep_ESaIS5_ELN9__gnu_cxx12_Lock_policyE2EEC1IJEEES6_DpOT_
}
